ARM GAS  C:\Users\Jeppe\AppData\Local\Temp\cclr3EpB.s 			page 1


   1              		.cpu cortex-m0
   2              		.fpu softvfp
   3              		.eabi_attribute 20, 1
   4              		.eabi_attribute 21, 1
   5              		.eabi_attribute 23, 3
   6              		.eabi_attribute 24, 1
   7              		.eabi_attribute 25, 1
   8              		.eabi_attribute 26, 1
   9              		.eabi_attribute 30, 6
  10              		.eabi_attribute 34, 0
  11              		.eabi_attribute 18, 4
  12              		.code	16
  13              		.file	"BTUART.c"
  14              		.text
  15              	.Ltext0:
  16              		.cfi_sections	.debug_frame
  17              		.comm	dataArray,16,4
  18              		.section	.text.initUART,"ax",%progbits
  19              		.align	2
  20              		.global	initUART
  21              		.code	16
  22              		.thumb_func
  23              		.type	initUART, %function
  24              	initUART:
  25              	.LFB33:
  26              		.file 1 ".\\BTUART.c"
   1:.\BTUART.c    **** /* ========================================
   2:.\BTUART.c    ****  *
   3:.\BTUART.c    ****  * Copyright YOUR COMPANY, THE YEAR
   4:.\BTUART.c    ****  * All Rights Reserved
   5:.\BTUART.c    ****  * UNPUBLISHED, LICENSED SOFTWARE.
   6:.\BTUART.c    ****  *
   7:.\BTUART.c    ****  * CONFIDENTIAL AND PROPRIETARY INFORMATION
   8:.\BTUART.c    ****  * WHICH IS THE PROPERTY OF your company.
   9:.\BTUART.c    ****  *
  10:.\BTUART.c    ****  * ========================================
  11:.\BTUART.c    **** */
  12:.\BTUART.c    **** #include "BTUART.h"
  13:.\BTUART.c    **** #include "Sensor.h"
  14:.\BTUART.c    **** 
  15:.\BTUART.c    **** 
  16:.\BTUART.c    **** 
  17:.\BTUART.c    **** char dataArray[MAXSENSDATA];     // Array with id-number and data to send via BT
  18:.\BTUART.c    **** 
  19:.\BTUART.c    **** void initUART()
  20:.\BTUART.c    **** {
  27              		.loc 1 20 0
  28              		.cfi_startproc
  29 0000 80B5     		push	{r7, lr}
  30              	.LCFI0:
  31              		.cfi_def_cfa_offset 8
  32              		.cfi_offset 7, -8
  33              		.cfi_offset 14, -4
  34 0002 00AF     		add	r7, sp, #0
  35              	.LCFI1:
  36              		.cfi_def_cfa_register 7
  21:.\BTUART.c    ****     UART_1_Start();
ARM GAS  C:\Users\Jeppe\AppData\Local\Temp\cclr3EpB.s 			page 2


  37              		.loc 1 21 0
  38 0004 FFF7FEFF 		bl	UART_1_Start
  22:.\BTUART.c    **** }
  39              		.loc 1 22 0
  40 0008 BD46     		mov	sp, r7
  41              		@ sp needed for prologue
  42 000a 80BD     		pop	{r7, pc}
  43              		.cfi_endproc
  44              	.LFE33:
  45              		.size	initUART, .-initUART
  46              		.section	.text.setdataArray,"ax",%progbits
  47              		.align	2
  48              		.global	setdataArray
  49              		.code	16
  50              		.thumb_func
  51              		.type	setdataArray, %function
  52              	setdataArray:
  53              	.LFB34:
  23:.\BTUART.c    **** 
  24:.\BTUART.c    **** 
  25:.\BTUART.c    **** 
  26:.\BTUART.c    **** void setdataArray(int ID, int x_data, int y_data, int z_data)
  27:.\BTUART.c    **** {
  54              		.loc 1 27 0
  55              		.cfi_startproc
  56 0000 80B5     		push	{r7, lr}
  57              	.LCFI2:
  58              		.cfi_def_cfa_offset 8
  59              		.cfi_offset 7, -8
  60              		.cfi_offset 14, -4
  61 0002 86B0     		sub	sp, sp, #24
  62              	.LCFI3:
  63              		.cfi_def_cfa_offset 32
  64 0004 00AF     		add	r7, sp, #0
  65              	.LCFI4:
  66              		.cfi_def_cfa_register 7
  67 0006 F860     		str	r0, [r7, #12]
  68 0008 B960     		str	r1, [r7, #8]
  69 000a 7A60     		str	r2, [r7, #4]
  70 000c 3B60     		str	r3, [r7]
  28:.\BTUART.c    ****     int i;
  29:.\BTUART.c    ****     
  30:.\BTUART.c    ****     dataArray[0] = ID+1; 
  71              		.loc 1 30 0
  72 000e FB68     		ldr	r3, [r7, #12]
  73 0010 DBB2     		uxtb	r3, r3
  74 0012 0133     		add	r3, r3, #1
  75 0014 DAB2     		uxtb	r2, r3
  76 0016 124B     		ldr	r3, .L5
  77 0018 1A70     		strb	r2, [r3]
  31:.\BTUART.c    ****     dataArray[1] = x_data+1;
  78              		.loc 1 31 0
  79 001a BB68     		ldr	r3, [r7, #8]
  80 001c DBB2     		uxtb	r3, r3
  81 001e 0133     		add	r3, r3, #1
  82 0020 DAB2     		uxtb	r2, r3
  83 0022 0F4B     		ldr	r3, .L5
ARM GAS  C:\Users\Jeppe\AppData\Local\Temp\cclr3EpB.s 			page 3


  84 0024 5A70     		strb	r2, [r3, #1]
  32:.\BTUART.c    ****     dataArray[2] = y_data+1;
  85              		.loc 1 32 0
  86 0026 7B68     		ldr	r3, [r7, #4]
  87 0028 DBB2     		uxtb	r3, r3
  88 002a 0133     		add	r3, r3, #1
  89 002c DAB2     		uxtb	r2, r3
  90 002e 0C4B     		ldr	r3, .L5
  91 0030 9A70     		strb	r2, [r3, #2]
  33:.\BTUART.c    ****     dataArray[3] = z_data+1;
  92              		.loc 1 33 0
  93 0032 3B68     		ldr	r3, [r7]
  94 0034 DBB2     		uxtb	r3, r3
  95 0036 0133     		add	r3, r3, #1
  96 0038 DAB2     		uxtb	r2, r3
  97 003a 094B     		ldr	r3, .L5
  98 003c DA70     		strb	r2, [r3, #3]
  34:.\BTUART.c    ****     
  35:.\BTUART.c    ****     for(i = 4; i<MAXSENSDATA; i++) //Sætter de resterende pladser i array'et til 0. 
  99              		.loc 1 35 0
 100 003e 0423     		mov	r3, #4
 101 0040 7B61     		str	r3, [r7, #20]
 102 0042 07E0     		b	.L3
 103              	.L4:
  36:.\BTUART.c    ****     {
  37:.\BTUART.c    ****         dataArray[i] = 1; 
 104              		.loc 1 37 0 discriminator 2
 105 0044 064A     		ldr	r2, .L5
 106 0046 7B69     		ldr	r3, [r7, #20]
 107 0048 D318     		add	r3, r2, r3
 108 004a 0122     		mov	r2, #1
 109 004c 1A70     		strb	r2, [r3]
  35:.\BTUART.c    ****     for(i = 4; i<MAXSENSDATA; i++) //Sætter de resterende pladser i array'et til 0. 
 110              		.loc 1 35 0 discriminator 2
 111 004e 7B69     		ldr	r3, [r7, #20]
 112 0050 0133     		add	r3, r3, #1
 113 0052 7B61     		str	r3, [r7, #20]
 114              	.L3:
  35:.\BTUART.c    ****     for(i = 4; i<MAXSENSDATA; i++) //Sætter de resterende pladser i array'et til 0. 
 115              		.loc 1 35 0 is_stmt 0 discriminator 1
 116 0054 7B69     		ldr	r3, [r7, #20]
 117 0056 0F2B     		cmp	r3, #15
 118 0058 F4DD     		ble	.L4
  38:.\BTUART.c    ****     }
  39:.\BTUART.c    ****     
  40:.\BTUART.c    **** }
 119              		.loc 1 40 0 is_stmt 1
 120 005a BD46     		mov	sp, r7
 121 005c 06B0     		add	sp, sp, #24
 122              		@ sp needed for prologue
 123 005e 80BD     		pop	{r7, pc}
 124              	.L6:
 125              		.align	2
 126              	.L5:
 127 0060 00000000 		.word	dataArray
 128              		.cfi_endproc
 129              	.LFE34:
ARM GAS  C:\Users\Jeppe\AppData\Local\Temp\cclr3EpB.s 			page 4


 130              		.size	setdataArray, .-setdataArray
 131              		.section	.text.sendDataArray,"ax",%progbits
 132              		.align	2
 133              		.global	sendDataArray
 134              		.code	16
 135              		.thumb_func
 136              		.type	sendDataArray, %function
 137              	sendDataArray:
 138              	.LFB35:
  41:.\BTUART.c    **** 
  42:.\BTUART.c    **** 
  43:.\BTUART.c    **** void sendDataArray()
  44:.\BTUART.c    **** {
 139              		.loc 1 44 0
 140              		.cfi_startproc
 141 0000 80B5     		push	{r7, lr}
 142              	.LCFI5:
 143              		.cfi_def_cfa_offset 8
 144              		.cfi_offset 7, -8
 145              		.cfi_offset 14, -4
 146 0002 88B0     		sub	sp, sp, #32
 147              	.LCFI6:
 148              		.cfi_def_cfa_offset 40
 149 0004 00AF     		add	r7, sp, #0
 150              	.LCFI7:
 151              		.cfi_def_cfa_register 7
  45:.\BTUART.c    ****     char accelArray[6];
  46:.\BTUART.c    ****     char gyroArray[6];
  47:.\BTUART.c    ****     char proxArray[6];
  48:.\BTUART.c    ****     char flexArray[6];
  49:.\BTUART.c    ****     // Sættter accelerometer array.
  50:.\BTUART.c    ****     accelArray[0] = START_SENSDATA;
 152              		.loc 1 50 0
 153 0006 3B1C     		mov	r3, r7
 154 0008 1833     		add	r3, r3, #24
 155 000a 0F22     		mov	r2, #15
 156 000c 1A70     		strb	r2, [r3]
  51:.\BTUART.c    ****     accelArray[1] = dataArray[0];   // ID 0
 157              		.loc 1 51 0
 158 000e 3E4B     		ldr	r3, .L8
 159 0010 1A78     		ldrb	r2, [r3]
 160 0012 3B1C     		mov	r3, r7
 161 0014 1833     		add	r3, r3, #24
 162 0016 5A70     		strb	r2, [r3, #1]
  52:.\BTUART.c    ****     accelArray[2] = dataArray[1];   // x
 163              		.loc 1 52 0
 164 0018 3B4B     		ldr	r3, .L8
 165 001a 5A78     		ldrb	r2, [r3, #1]
 166 001c 3B1C     		mov	r3, r7
 167 001e 1833     		add	r3, r3, #24
 168 0020 9A70     		strb	r2, [r3, #2]
  53:.\BTUART.c    ****     accelArray[3] = dataArray[2];   // y
 169              		.loc 1 53 0
 170 0022 394B     		ldr	r3, .L8
 171 0024 9A78     		ldrb	r2, [r3, #2]
 172 0026 3B1C     		mov	r3, r7
 173 0028 1833     		add	r3, r3, #24
ARM GAS  C:\Users\Jeppe\AppData\Local\Temp\cclr3EpB.s 			page 5


 174 002a DA70     		strb	r2, [r3, #3]
  54:.\BTUART.c    ****     accelArray[4] = dataArray[3];   // z
 175              		.loc 1 54 0
 176 002c 364B     		ldr	r3, .L8
 177 002e DA78     		ldrb	r2, [r3, #3]
 178 0030 3B1C     		mov	r3, r7
 179 0032 1833     		add	r3, r3, #24
 180 0034 1A71     		strb	r2, [r3, #4]
  55:.\BTUART.c    ****     accelArray[5] = 0; //Nul terminering 
 181              		.loc 1 55 0
 182 0036 3B1C     		mov	r3, r7
 183 0038 1833     		add	r3, r3, #24
 184 003a 0022     		mov	r2, #0
 185 003c 5A71     		strb	r2, [r3, #5]
  56:.\BTUART.c    ****     //Sætter gyroskop array
  57:.\BTUART.c    ****     gyroArray[0] = START_SENSDATA;
 186              		.loc 1 57 0
 187 003e 3B1C     		mov	r3, r7
 188 0040 1033     		add	r3, r3, #16
 189 0042 0F22     		mov	r2, #15
 190 0044 1A70     		strb	r2, [r3]
  58:.\BTUART.c    ****     gyroArray[1] = 1+1;             // ID 1
 191              		.loc 1 58 0
 192 0046 3B1C     		mov	r3, r7
 193 0048 1033     		add	r3, r3, #16
 194 004a 0222     		mov	r2, #2
 195 004c 5A70     		strb	r2, [r3, #1]
  59:.\BTUART.c    ****     gyroArray[2] = 1+1;               // x
 196              		.loc 1 59 0
 197 004e 3B1C     		mov	r3, r7
 198 0050 1033     		add	r3, r3, #16
 199 0052 0222     		mov	r2, #2
 200 0054 9A70     		strb	r2, [r3, #2]
  60:.\BTUART.c    ****     gyroArray[3] = 1+1;               // y
 201              		.loc 1 60 0
 202 0056 3B1C     		mov	r3, r7
 203 0058 1033     		add	r3, r3, #16
 204 005a 0222     		mov	r2, #2
 205 005c DA70     		strb	r2, [r3, #3]
  61:.\BTUART.c    ****     gyroArray[4] = 1+1;               // z
 206              		.loc 1 61 0
 207 005e 3B1C     		mov	r3, r7
 208 0060 1033     		add	r3, r3, #16
 209 0062 0222     		mov	r2, #2
 210 0064 1A71     		strb	r2, [r3, #4]
  62:.\BTUART.c    ****     gyroArray[5] = 0; //Nul terminering
 211              		.loc 1 62 0
 212 0066 3B1C     		mov	r3, r7
 213 0068 1033     		add	r3, r3, #16
 214 006a 0022     		mov	r2, #0
 215 006c 5A71     		strb	r2, [r3, #5]
  63:.\BTUART.c    ****     //Sætter Proximity array
  64:.\BTUART.c    ****     proxArray[0] = START_SENSDATA;
 216              		.loc 1 64 0
 217 006e 3B1C     		mov	r3, r7
 218 0070 0833     		add	r3, r3, #8
 219 0072 0F22     		mov	r2, #15
ARM GAS  C:\Users\Jeppe\AppData\Local\Temp\cclr3EpB.s 			page 6


 220 0074 1A70     		strb	r2, [r3]
  65:.\BTUART.c    ****     proxArray[1] = 2+1;             // ID 2
 221              		.loc 1 65 0
 222 0076 3B1C     		mov	r3, r7
 223 0078 0833     		add	r3, r3, #8
 224 007a 0322     		mov	r2, #3
 225 007c 5A70     		strb	r2, [r3, #1]
  66:.\BTUART.c    ****     proxArray[2] = 1+1;               // x
 226              		.loc 1 66 0
 227 007e 3B1C     		mov	r3, r7
 228 0080 0833     		add	r3, r3, #8
 229 0082 0222     		mov	r2, #2
 230 0084 9A70     		strb	r2, [r3, #2]
  67:.\BTUART.c    ****     proxArray[3] = 1+1;               // y
 231              		.loc 1 67 0
 232 0086 3B1C     		mov	r3, r7
 233 0088 0833     		add	r3, r3, #8
 234 008a 0222     		mov	r2, #2
 235 008c DA70     		strb	r2, [r3, #3]
  68:.\BTUART.c    ****     proxArray[4] = 1+1;               // z
 236              		.loc 1 68 0
 237 008e 3B1C     		mov	r3, r7
 238 0090 0833     		add	r3, r3, #8
 239 0092 0222     		mov	r2, #2
 240 0094 1A71     		strb	r2, [r3, #4]
  69:.\BTUART.c    ****     proxArray[5] = 0; //Nul terminering
 241              		.loc 1 69 0
 242 0096 3B1C     		mov	r3, r7
 243 0098 0833     		add	r3, r3, #8
 244 009a 0022     		mov	r2, #0
 245 009c 5A71     		strb	r2, [r3, #5]
  70:.\BTUART.c    ****     //Sætter flex array
  71:.\BTUART.c    ****     flexArray[0] = START_SENSDATA;
 246              		.loc 1 71 0
 247 009e 3B1C     		mov	r3, r7
 248 00a0 0F22     		mov	r2, #15
 249 00a2 1A70     		strb	r2, [r3]
  72:.\BTUART.c    ****     flexArray[1] = 3+1;             // ID 3
 250              		.loc 1 72 0
 251 00a4 3B1C     		mov	r3, r7
 252 00a6 0422     		mov	r2, #4
 253 00a8 5A70     		strb	r2, [r3, #1]
  73:.\BTUART.c    ****     flexArray[2] = 1+1;               // x
 254              		.loc 1 73 0
 255 00aa 3B1C     		mov	r3, r7
 256 00ac 0222     		mov	r2, #2
 257 00ae 9A70     		strb	r2, [r3, #2]
  74:.\BTUART.c    ****     flexArray[3] = 1+1;               // y
 258              		.loc 1 74 0
 259 00b0 3B1C     		mov	r3, r7
 260 00b2 0222     		mov	r2, #2
 261 00b4 DA70     		strb	r2, [r3, #3]
  75:.\BTUART.c    ****     flexArray[4] = 1+1;               // z
 262              		.loc 1 75 0
 263 00b6 3B1C     		mov	r3, r7
 264 00b8 0222     		mov	r2, #2
 265 00ba 1A71     		strb	r2, [r3, #4]
ARM GAS  C:\Users\Jeppe\AppData\Local\Temp\cclr3EpB.s 			page 7


  76:.\BTUART.c    ****     flexArray[5] = 0; //Nul terminering
 266              		.loc 1 76 0
 267 00bc 3B1C     		mov	r3, r7
 268 00be 0022     		mov	r2, #0
 269 00c0 5A71     		strb	r2, [r3, #5]
  77:.\BTUART.c    ****     
  78:.\BTUART.c    ****     CyDelay(3);
 270              		.loc 1 78 0
 271 00c2 0320     		mov	r0, #3
 272 00c4 FFF7FEFF 		bl	CyDelay
  79:.\BTUART.c    ****     UART_1_UartPutString(accelArray);
 273              		.loc 1 79 0
 274 00c8 3B1C     		mov	r3, r7
 275 00ca 1833     		add	r3, r3, #24
 276 00cc 181C     		mov	r0, r3
 277 00ce FFF7FEFF 		bl	UART_1_UartPutString
  80:.\BTUART.c    ****     CyDelay(3);
 278              		.loc 1 80 0
 279 00d2 0320     		mov	r0, #3
 280 00d4 FFF7FEFF 		bl	CyDelay
  81:.\BTUART.c    ****     UART_1_UartPutString(gyroArray);
 281              		.loc 1 81 0
 282 00d8 3B1C     		mov	r3, r7
 283 00da 1033     		add	r3, r3, #16
 284 00dc 181C     		mov	r0, r3
 285 00de FFF7FEFF 		bl	UART_1_UartPutString
  82:.\BTUART.c    ****     CyDelay(3);
 286              		.loc 1 82 0
 287 00e2 0320     		mov	r0, #3
 288 00e4 FFF7FEFF 		bl	CyDelay
  83:.\BTUART.c    ****     UART_1_UartPutString(proxArray);
 289              		.loc 1 83 0
 290 00e8 3B1C     		mov	r3, r7
 291 00ea 0833     		add	r3, r3, #8
 292 00ec 181C     		mov	r0, r3
 293 00ee FFF7FEFF 		bl	UART_1_UartPutString
  84:.\BTUART.c    ****     CyDelay(3);
 294              		.loc 1 84 0
 295 00f2 0320     		mov	r0, #3
 296 00f4 FFF7FEFF 		bl	CyDelay
  85:.\BTUART.c    ****     UART_1_UartPutString(flexArray);
 297              		.loc 1 85 0
 298 00f8 3B1C     		mov	r3, r7
 299 00fa 181C     		mov	r0, r3
 300 00fc FFF7FEFF 		bl	UART_1_UartPutString
  86:.\BTUART.c    ****  
  87:.\BTUART.c    **** }
 301              		.loc 1 87 0
 302 0100 BD46     		mov	sp, r7
 303 0102 08B0     		add	sp, sp, #32
 304              		@ sp needed for prologue
 305 0104 80BD     		pop	{r7, pc}
 306              	.L9:
 307 0106 C046     		.align	2
 308              	.L8:
 309 0108 00000000 		.word	dataArray
 310              		.cfi_endproc
ARM GAS  C:\Users\Jeppe\AppData\Local\Temp\cclr3EpB.s 			page 8


 311              	.LFE35:
 312              		.size	sendDataArray, .-sendDataArray
 313              		.text
 314              	.Letext0: