ARM GAS  C:\Users\Jeppe\AppData\Local\Temp\cceUmyqg.s 			page 1


   1              		.cpu cortex-m0
   2              		.fpu softvfp
   3              		.eabi_attribute 20, 1
   4              		.eabi_attribute 21, 1
   5              		.eabi_attribute 23, 3
   6              		.eabi_attribute 24, 1
   7              		.eabi_attribute 25, 1
   8              		.eabi_attribute 26, 1
   9              		.eabi_attribute 30, 6
  10              		.eabi_attribute 34, 0
  11              		.eabi_attribute 18, 4
  12              		.code	16
  13              		.file	"BTUART.c"
  14              		.text
  15              	.Ltext0:
  16              		.cfi_sections	.debug_frame
  17              		.comm	dataArray,16,4
  18              		.section	.text.initUART,"ax",%progbits
  19              		.align	2
  20              		.global	initUART
  21              		.code	16
  22              		.thumb_func
  23              		.type	initUART, %function
  24              	initUART:
  25              	.LFB33:
  26              		.file 1 ".\\BTUART.c"
   1:.\BTUART.c    **** /* ========================================
   2:.\BTUART.c    ****  *
   3:.\BTUART.c    ****  * Copyright YOUR COMPANY, THE YEAR
   4:.\BTUART.c    ****  * All Rights Reserved
   5:.\BTUART.c    ****  * UNPUBLISHED, LICENSED SOFTWARE.
   6:.\BTUART.c    ****  *
   7:.\BTUART.c    ****  * CONFIDENTIAL AND PROPRIETARY INFORMATION
   8:.\BTUART.c    ****  * WHICH IS THE PROPERTY OF your company.
   9:.\BTUART.c    ****  *
  10:.\BTUART.c    ****  * ========================================
  11:.\BTUART.c    **** */
  12:.\BTUART.c    **** #include "BTUART.h"
  13:.\BTUART.c    **** #include "Sensor.h"
  14:.\BTUART.c    **** 
  15:.\BTUART.c    **** 
  16:.\BTUART.c    **** 
  17:.\BTUART.c    **** char dataArray[MAXSENSDATA];     // Array with id-number and data to send via BT
  18:.\BTUART.c    **** 
  19:.\BTUART.c    **** void initUART()
  20:.\BTUART.c    **** {
  27              		.loc 1 20 0
  28              		.cfi_startproc
  29 0000 80B5     		push	{r7, lr}
  30              	.LCFI0:
  31              		.cfi_def_cfa_offset 8
  32              		.cfi_offset 7, -8
  33              		.cfi_offset 14, -4
  34 0002 00AF     		add	r7, sp, #0
  35              	.LCFI1:
  36              		.cfi_def_cfa_register 7
  21:.\BTUART.c    ****     UART_1_Start();
ARM GAS  C:\Users\Jeppe\AppData\Local\Temp\cceUmyqg.s 			page 2


  37              		.loc 1 21 0
  38 0004 FFF7FEFF 		bl	UART_1_Start
  22:.\BTUART.c    **** }
  39              		.loc 1 22 0
  40 0008 BD46     		mov	sp, r7
  41              		@ sp needed for prologue
  42 000a 80BD     		pop	{r7, pc}
  43              		.cfi_endproc
  44              	.LFE33:
  45              		.size	initUART, .-initUART
  46              		.section	.text.setdataArray,"ax",%progbits
  47              		.align	2
  48              		.global	setdataArray
  49              		.code	16
  50              		.thumb_func
  51              		.type	setdataArray, %function
  52              	setdataArray:
  53              	.LFB34:
  23:.\BTUART.c    **** 
  24:.\BTUART.c    **** 
  25:.\BTUART.c    **** 
  26:.\BTUART.c    **** void setdataArray(int ID, int x_data, int y_data, int z_data)
  27:.\BTUART.c    **** {
  54              		.loc 1 27 0
  55              		.cfi_startproc
  56 0000 80B5     		push	{r7, lr}
  57              	.LCFI2:
  58              		.cfi_def_cfa_offset 8
  59              		.cfi_offset 7, -8
  60              		.cfi_offset 14, -4
  61 0002 86B0     		sub	sp, sp, #24
  62              	.LCFI3:
  63              		.cfi_def_cfa_offset 32
  64 0004 00AF     		add	r7, sp, #0
  65              	.LCFI4:
  66              		.cfi_def_cfa_register 7
  67 0006 F860     		str	r0, [r7, #12]
  68 0008 B960     		str	r1, [r7, #8]
  69 000a 7A60     		str	r2, [r7, #4]
  70 000c 3B60     		str	r3, [r7]
  28:.\BTUART.c    ****     int i;
  29:.\BTUART.c    ****     
  30:.\BTUART.c    ****     dataArray[0] = ID+1; 
  71              		.loc 1 30 0
  72 000e FB68     		ldr	r3, [r7, #12]
  73 0010 DBB2     		uxtb	r3, r3
  74 0012 0133     		add	r3, r3, #1
  75 0014 DAB2     		uxtb	r2, r3
  76 0016 124B     		ldr	r3, .L5
  77 0018 1A70     		strb	r2, [r3]
  31:.\BTUART.c    ****     dataArray[1] = x_data+1;
  78              		.loc 1 31 0
  79 001a BB68     		ldr	r3, [r7, #8]
  80 001c DBB2     		uxtb	r3, r3
  81 001e 0133     		add	r3, r3, #1
  82 0020 DAB2     		uxtb	r2, r3
  83 0022 0F4B     		ldr	r3, .L5
ARM GAS  C:\Users\Jeppe\AppData\Local\Temp\cceUmyqg.s 			page 3


  84 0024 5A70     		strb	r2, [r3, #1]
  32:.\BTUART.c    ****     dataArray[2] = y_data+1;
  85              		.loc 1 32 0
  86 0026 7B68     		ldr	r3, [r7, #4]
  87 0028 DBB2     		uxtb	r3, r3
  88 002a 0133     		add	r3, r3, #1
  89 002c DAB2     		uxtb	r2, r3
  90 002e 0C4B     		ldr	r3, .L5
  91 0030 9A70     		strb	r2, [r3, #2]
  33:.\BTUART.c    ****     dataArray[3] = z_data+1;
  92              		.loc 1 33 0
  93 0032 3B68     		ldr	r3, [r7]
  94 0034 DBB2     		uxtb	r3, r3
  95 0036 0133     		add	r3, r3, #1
  96 0038 DAB2     		uxtb	r2, r3
  97 003a 094B     		ldr	r3, .L5
  98 003c DA70     		strb	r2, [r3, #3]
  34:.\BTUART.c    ****     
  35:.\BTUART.c    ****     for(i = 4; i<MAXSENSDATA; i++) //Sætter de resterende pladser i array'et til 0. 
  99              		.loc 1 35 0
 100 003e 0423     		mov	r3, #4
 101 0040 7B61     		str	r3, [r7, #20]
 102 0042 07E0     		b	.L3
 103              	.L4:
  36:.\BTUART.c    ****     {
  37:.\BTUART.c    ****         dataArray[i] = 1; 
 104              		.loc 1 37 0 discriminator 2
 105 0044 064A     		ldr	r2, .L5
 106 0046 7B69     		ldr	r3, [r7, #20]
 107 0048 D318     		add	r3, r2, r3
 108 004a 0122     		mov	r2, #1
 109 004c 1A70     		strb	r2, [r3]
  35:.\BTUART.c    ****     for(i = 4; i<MAXSENSDATA; i++) //Sætter de resterende pladser i array'et til 0. 
 110              		.loc 1 35 0 discriminator 2
 111 004e 7B69     		ldr	r3, [r7, #20]
 112 0050 0133     		add	r3, r3, #1
 113 0052 7B61     		str	r3, [r7, #20]
 114              	.L3:
  35:.\BTUART.c    ****     for(i = 4; i<MAXSENSDATA; i++) //Sætter de resterende pladser i array'et til 0. 
 115              		.loc 1 35 0 is_stmt 0 discriminator 1
 116 0054 7B69     		ldr	r3, [r7, #20]
 117 0056 0F2B     		cmp	r3, #15
 118 0058 F4DD     		ble	.L4
  38:.\BTUART.c    ****     }
  39:.\BTUART.c    ****     
  40:.\BTUART.c    **** }
 119              		.loc 1 40 0 is_stmt 1
 120 005a BD46     		mov	sp, r7
 121 005c 06B0     		add	sp, sp, #24
 122              		@ sp needed for prologue
 123 005e 80BD     		pop	{r7, pc}
 124              	.L6:
 125              		.align	2
 126              	.L5:
 127 0060 00000000 		.word	dataArray
 128              		.cfi_endproc
 129              	.LFE34:
ARM GAS  C:\Users\Jeppe\AppData\Local\Temp\cceUmyqg.s 			page 4


 130              		.size	setdataArray, .-setdataArray
 131              		.section	.text.sendDataArray,"ax",%progbits
 132              		.align	2
 133              		.global	sendDataArray
 134              		.code	16
 135              		.thumb_func
 136              		.type	sendDataArray, %function
 137              	sendDataArray:
 138              	.LFB35:
  41:.\BTUART.c    **** 
  42:.\BTUART.c    **** 
  43:.\BTUART.c    **** void sendDataArray()
  44:.\BTUART.c    **** {
 139              		.loc 1 44 0
 140              		.cfi_startproc
 141 0000 80B5     		push	{r7, lr}
 142              	.LCFI5:
 143              		.cfi_def_cfa_offset 8
 144              		.cfi_offset 7, -8
 145              		.cfi_offset 14, -4
 146 0002 8AB0     		sub	sp, sp, #40
 147              	.LCFI6:
 148              		.cfi_def_cfa_offset 48
 149 0004 00AF     		add	r7, sp, #0
 150              	.LCFI7:
 151              		.cfi_def_cfa_register 7
  45:.\BTUART.c    ****     char accelArray[6];
  46:.\BTUART.c    ****     char gyroArray[6];
  47:.\BTUART.c    ****     char proxArray[6];
  48:.\BTUART.c    ****     char flexArray[6];
  49:.\BTUART.c    ****     // Sætter accelerometer array.
  50:.\BTUART.c    ****     accelArray[0] = START_SENSDATA;
 152              		.loc 1 50 0
 153 0006 3B1C     		mov	r3, r7
 154 0008 1C33     		add	r3, r3, #28
 155 000a 0F22     		mov	r2, #15
 156 000c 1A70     		strb	r2, [r3]
  51:.\BTUART.c    ****     accelArray[1] = dataArray[0];   // ID 0
 157              		.loc 1 51 0
 158 000e 454B     		ldr	r3, .L11
 159 0010 1A78     		ldrb	r2, [r3]
 160 0012 3B1C     		mov	r3, r7
 161 0014 1C33     		add	r3, r3, #28
 162 0016 5A70     		strb	r2, [r3, #1]
  52:.\BTUART.c    ****     accelArray[2] = dataArray[1];   // x
 163              		.loc 1 52 0
 164 0018 424B     		ldr	r3, .L11
 165 001a 5A78     		ldrb	r2, [r3, #1]
 166 001c 3B1C     		mov	r3, r7
 167 001e 1C33     		add	r3, r3, #28
 168 0020 9A70     		strb	r2, [r3, #2]
  53:.\BTUART.c    ****     accelArray[3] = dataArray[2];   // y
 169              		.loc 1 53 0
 170 0022 404B     		ldr	r3, .L11
 171 0024 9A78     		ldrb	r2, [r3, #2]
 172 0026 3B1C     		mov	r3, r7
 173 0028 1C33     		add	r3, r3, #28
ARM GAS  C:\Users\Jeppe\AppData\Local\Temp\cceUmyqg.s 			page 5


 174 002a DA70     		strb	r2, [r3, #3]
  54:.\BTUART.c    ****     accelArray[4] = dataArray[3];   // z
 175              		.loc 1 54 0
 176 002c 3D4B     		ldr	r3, .L11
 177 002e DA78     		ldrb	r2, [r3, #3]
 178 0030 3B1C     		mov	r3, r7
 179 0032 1C33     		add	r3, r3, #28
 180 0034 1A71     		strb	r2, [r3, #4]
  55:.\BTUART.c    ****     accelArray[5] = 0; //Nul terminering 
 181              		.loc 1 55 0
 182 0036 3B1C     		mov	r3, r7
 183 0038 1C33     		add	r3, r3, #28
 184 003a 0022     		mov	r2, #0
 185 003c 5A71     		strb	r2, [r3, #5]
  56:.\BTUART.c    ****     //Sætter gyroskop array
  57:.\BTUART.c    ****     gyroArray[0] = START_SENSDATA;
 186              		.loc 1 57 0
 187 003e 3B1C     		mov	r3, r7
 188 0040 1433     		add	r3, r3, #20
 189 0042 0F22     		mov	r2, #15
 190 0044 1A70     		strb	r2, [r3]
  58:.\BTUART.c    ****     gyroArray[1] = 1+1;             // ID 1
 191              		.loc 1 58 0
 192 0046 3B1C     		mov	r3, r7
 193 0048 1433     		add	r3, r3, #20
 194 004a 0222     		mov	r2, #2
 195 004c 5A70     		strb	r2, [r3, #1]
  59:.\BTUART.c    ****     gyroArray[2] = 1+1;               // x
 196              		.loc 1 59 0
 197 004e 3B1C     		mov	r3, r7
 198 0050 1433     		add	r3, r3, #20
 199 0052 0222     		mov	r2, #2
 200 0054 9A70     		strb	r2, [r3, #2]
  60:.\BTUART.c    ****     gyroArray[3] = 1+1;               // y
 201              		.loc 1 60 0
 202 0056 3B1C     		mov	r3, r7
 203 0058 1433     		add	r3, r3, #20
 204 005a 0222     		mov	r2, #2
 205 005c DA70     		strb	r2, [r3, #3]
  61:.\BTUART.c    ****     gyroArray[4] = 1+1;               // z
 206              		.loc 1 61 0
 207 005e 3B1C     		mov	r3, r7
 208 0060 1433     		add	r3, r3, #20
 209 0062 0222     		mov	r2, #2
 210 0064 1A71     		strb	r2, [r3, #4]
  62:.\BTUART.c    ****     gyroArray[5] = 0; //Nul terminering
 211              		.loc 1 62 0
 212 0066 3B1C     		mov	r3, r7
 213 0068 1433     		add	r3, r3, #20
 214 006a 0022     		mov	r2, #0
 215 006c 5A71     		strb	r2, [r3, #5]
  63:.\BTUART.c    ****     //Sætter Proximity array
  64:.\BTUART.c    ****     proxArray[0] = START_SENSDATA;
 216              		.loc 1 64 0
 217 006e 3B1C     		mov	r3, r7
 218 0070 0C33     		add	r3, r3, #12
 219 0072 0F22     		mov	r2, #15
ARM GAS  C:\Users\Jeppe\AppData\Local\Temp\cceUmyqg.s 			page 6


 220 0074 1A70     		strb	r2, [r3]
  65:.\BTUART.c    ****     proxArray[1] = 2+1;             // ID 2
 221              		.loc 1 65 0
 222 0076 3B1C     		mov	r3, r7
 223 0078 0C33     		add	r3, r3, #12
 224 007a 0322     		mov	r2, #3
 225 007c 5A70     		strb	r2, [r3, #1]
  66:.\BTUART.c    ****     proxArray[2] = 1+1;               // x
 226              		.loc 1 66 0
 227 007e 3B1C     		mov	r3, r7
 228 0080 0C33     		add	r3, r3, #12
 229 0082 0222     		mov	r2, #2
 230 0084 9A70     		strb	r2, [r3, #2]
  67:.\BTUART.c    ****     proxArray[3] = 1+1;               // y
 231              		.loc 1 67 0
 232 0086 3B1C     		mov	r3, r7
 233 0088 0C33     		add	r3, r3, #12
 234 008a 0222     		mov	r2, #2
 235 008c DA70     		strb	r2, [r3, #3]
  68:.\BTUART.c    ****     proxArray[4] = 1+1;               // z
 236              		.loc 1 68 0
 237 008e 3B1C     		mov	r3, r7
 238 0090 0C33     		add	r3, r3, #12
 239 0092 0222     		mov	r2, #2
 240 0094 1A71     		strb	r2, [r3, #4]
  69:.\BTUART.c    ****     proxArray[5] = 0; //Nul terminering
 241              		.loc 1 69 0
 242 0096 3B1C     		mov	r3, r7
 243 0098 0C33     		add	r3, r3, #12
 244 009a 0022     		mov	r2, #0
 245 009c 5A71     		strb	r2, [r3, #5]
  70:.\BTUART.c    ****     //Sætter flex array
  71:.\BTUART.c    ****     flexArray[0] = START_SENSDATA;
 246              		.loc 1 71 0
 247 009e 3B1D     		add	r3, r7, #4
 248 00a0 0F22     		mov	r2, #15
 249 00a2 1A70     		strb	r2, [r3]
  72:.\BTUART.c    ****     flexArray[1] = 3+1;             // ID 3
 250              		.loc 1 72 0
 251 00a4 3B1D     		add	r3, r7, #4
 252 00a6 0422     		mov	r2, #4
 253 00a8 5A70     		strb	r2, [r3, #1]
  73:.\BTUART.c    ****     flexArray[2] = 1+1;               // x
 254              		.loc 1 73 0
 255 00aa 3B1D     		add	r3, r7, #4
 256 00ac 0222     		mov	r2, #2
 257 00ae 9A70     		strb	r2, [r3, #2]
  74:.\BTUART.c    ****     flexArray[3] = 1+1;               // y
 258              		.loc 1 74 0
 259 00b0 3B1D     		add	r3, r7, #4
 260 00b2 0222     		mov	r2, #2
 261 00b4 DA70     		strb	r2, [r3, #3]
  75:.\BTUART.c    ****     flexArray[4] = 1+1;               // z
 262              		.loc 1 75 0
 263 00b6 3B1D     		add	r3, r7, #4
 264 00b8 0222     		mov	r2, #2
 265 00ba 1A71     		strb	r2, [r3, #4]
ARM GAS  C:\Users\Jeppe\AppData\Local\Temp\cceUmyqg.s 			page 7


  76:.\BTUART.c    ****     flexArray[5] = 0; //Nul terminering
 266              		.loc 1 76 0
 267 00bc 3B1D     		add	r3, r7, #4
 268 00be 0022     		mov	r2, #0
 269 00c0 5A71     		strb	r2, [r3, #5]
  77:.\BTUART.c    ****     
  78:.\BTUART.c    ****     
  79:.\BTUART.c    ****     
  80:.\BTUART.c    ****     CyDelay(3);
 270              		.loc 1 80 0
 271 00c2 0320     		mov	r0, #3
 272 00c4 FFF7FEFF 		bl	CyDelay
  81:.\BTUART.c    ****     UART_1_UartPutString(accelArray);
 273              		.loc 1 81 0
 274 00c8 3B1C     		mov	r3, r7
 275 00ca 1C33     		add	r3, r3, #28
 276 00cc 181C     		mov	r0, r3
 277 00ce FFF7FEFF 		bl	UART_1_UartPutString
  82:.\BTUART.c    ****     CyDelay(3);
 278              		.loc 1 82 0
 279 00d2 0320     		mov	r0, #3
 280 00d4 FFF7FEFF 		bl	CyDelay
  83:.\BTUART.c    ****     //UART_1_UartPutString(gyroArray);
  84:.\BTUART.c    ****     CyDelay(3);
 281              		.loc 1 84 0
 282 00d8 0320     		mov	r0, #3
 283 00da FFF7FEFF 		bl	CyDelay
  85:.\BTUART.c    ****     //UART_1_UartPutString(proxArray);
  86:.\BTUART.c    ****     CyDelay(3);
 284              		.loc 1 86 0
 285 00de 0320     		mov	r0, #3
 286 00e0 FFF7FEFF 		bl	CyDelay
  87:.\BTUART.c    ****     //UART_1_UartPutString(flexArray);
  88:.\BTUART.c    ****     
  89:.\BTUART.c    ****     //Error Check if I2C sensordata is valid
  90:.\BTUART.c    ****     if((dataArray[1] == 61)&&(dataArray[2] == 61)&&(dataArray[3] == 61))
 287              		.loc 1 90 0
 288 00e4 0F4B     		ldr	r3, .L11
 289 00e6 5B78     		ldrb	r3, [r3, #1]
 290 00e8 3D2B     		cmp	r3, #61
 291 00ea 0AD1     		bne	.L8
 292              		.loc 1 90 0 is_stmt 0 discriminator 1
 293 00ec 0D4B     		ldr	r3, .L11
 294 00ee 9B78     		ldrb	r3, [r3, #2]
 295 00f0 3D2B     		cmp	r3, #61
 296 00f2 06D1     		bne	.L8
 297 00f4 0B4B     		ldr	r3, .L11
 298 00f6 DB78     		ldrb	r3, [r3, #3]
 299 00f8 3D2B     		cmp	r3, #61
 300 00fa 02D1     		bne	.L8
  91:.\BTUART.c    ****     {
  92:.\BTUART.c    ****         ERRORPIN_Write(1);
 301              		.loc 1 92 0 is_stmt 1
 302 00fc 0120     		mov	r0, #1
 303 00fe FFF7FEFF 		bl	ERRORPIN_Write
 304              	.L8:
  93:.\BTUART.c    ****     }
ARM GAS  C:\Users\Jeppe\AppData\Local\Temp\cceUmyqg.s 			page 8


  94:.\BTUART.c    ****     
  95:.\BTUART.c    ****     //Reset dataArray to known acii value 48 = '0';
  96:.\BTUART.c    ****     int i;
  97:.\BTUART.c    ****     for(i = 0; i < MAXSENSDATA; i++)
 305              		.loc 1 97 0
 306 0102 0023     		mov	r3, #0
 307 0104 7B62     		str	r3, [r7, #36]
 308 0106 07E0     		b	.L9
 309              	.L10:
  98:.\BTUART.c    ****     {
  99:.\BTUART.c    ****         dataArray[i] = 48;
 310              		.loc 1 99 0 discriminator 2
 311 0108 064A     		ldr	r2, .L11
 312 010a 7B6A     		ldr	r3, [r7, #36]
 313 010c D318     		add	r3, r2, r3
 314 010e 3022     		mov	r2, #48
 315 0110 1A70     		strb	r2, [r3]
  97:.\BTUART.c    ****     for(i = 0; i < MAXSENSDATA; i++)
 316              		.loc 1 97 0 discriminator 2
 317 0112 7B6A     		ldr	r3, [r7, #36]
 318 0114 0133     		add	r3, r3, #1
 319 0116 7B62     		str	r3, [r7, #36]
 320              	.L9:
  97:.\BTUART.c    ****     for(i = 0; i < MAXSENSDATA; i++)
 321              		.loc 1 97 0 is_stmt 0 discriminator 1
 322 0118 7B6A     		ldr	r3, [r7, #36]
 323 011a 0F2B     		cmp	r3, #15
 324 011c F4DD     		ble	.L10
 100:.\BTUART.c    ****     }
 101:.\BTUART.c    ****     
 102:.\BTUART.c    **** }
 325              		.loc 1 102 0 is_stmt 1
 326 011e BD46     		mov	sp, r7
 327 0120 0AB0     		add	sp, sp, #40
 328              		@ sp needed for prologue
 329 0122 80BD     		pop	{r7, pc}
 330              	.L12:
 331              		.align	2
 332              	.L11:
 333 0124 00000000 		.word	dataArray
 334              		.cfi_endproc
 335              	.LFE35:
 336              		.size	sendDataArray, .-sendDataArray
 337              		.text
 338              	.Letext0:
 339              		.section	.debug_info,"",%progbits
 340              	.Ldebug_info0:
 341 0000 8D010000 		.4byte	0x18d
 342 0004 0200     		.2byte	0x2
 343 0006 00000000 		.4byte	.Ldebug_abbrev0
 344 000a 04       		.byte	0x4
 345 000b 01       		.uleb128 0x1
 346 000c 37000000 		.4byte	.LASF22
 347 0010 01       		.byte	0x1
 348 0011 2C000000 		.4byte	.LASF23
 349 0015 97000000 		.4byte	.LASF24
 350 0019 00000000 		.4byte	.Ldebug_ranges0+0
ARM GAS  C:\Users\Jeppe\AppData\Local\Temp\cceUmyqg.s 			page 9


 351 001d 00000000 		.4byte	0
 352 0021 00000000 		.4byte	0
 353 0025 00000000 		.4byte	.Ldebug_line0
 354 0029 02       		.uleb128 0x2
 355 002a 01       		.byte	0x1
 356 002b 06       		.byte	0x6
 357 002c AA010000 		.4byte	.LASF0
 358 0030 02       		.uleb128 0x2
 359 0031 01       		.byte	0x1
 360 0032 08       		.byte	0x8
 361 0033 24010000 		.4byte	.LASF1
 362 0037 02       		.uleb128 0x2
 363 0038 02       		.byte	0x2
 364 0039 05       		.byte	0x5
 365 003a 57010000 		.4byte	.LASF2
 366 003e 02       		.uleb128 0x2
 367 003f 02       		.byte	0x2
 368 0040 07       		.byte	0x7
 369 0041 97010000 		.4byte	.LASF3
 370 0045 02       		.uleb128 0x2
 371 0046 04       		.byte	0x4
 372 0047 05       		.byte	0x5
 373 0048 84010000 		.4byte	.LASF4
 374 004c 02       		.uleb128 0x2
 375 004d 04       		.byte	0x4
 376 004e 07       		.byte	0x7
 377 004f 6B010000 		.4byte	.LASF5
 378 0053 02       		.uleb128 0x2
 379 0054 08       		.byte	0x8
 380 0055 05       		.byte	0x5
 381 0056 00000000 		.4byte	.LASF6
 382 005a 02       		.uleb128 0x2
 383 005b 08       		.byte	0x8
 384 005c 07       		.byte	0x7
 385 005d 80000000 		.4byte	.LASF7
 386 0061 03       		.uleb128 0x3
 387 0062 04       		.byte	0x4
 388 0063 05       		.byte	0x5
 389 0064 696E7400 		.ascii	"int\000"
 390 0068 02       		.uleb128 0x2
 391 0069 04       		.byte	0x4
 392 006a 07       		.byte	0x7
 393 006b 0E000000 		.4byte	.LASF8
 394 006f 02       		.uleb128 0x2
 395 0070 04       		.byte	0x4
 396 0071 04       		.byte	0x4
 397 0072 B6010000 		.4byte	.LASF9
 398 0076 02       		.uleb128 0x2
 399 0077 08       		.byte	0x8
 400 0078 04       		.byte	0x4
 401 0079 7D010000 		.4byte	.LASF10
 402 007d 02       		.uleb128 0x2
 403 007e 01       		.byte	0x1
 404 007f 08       		.byte	0x8
 405 0080 3D010000 		.4byte	.LASF11
 406 0084 02       		.uleb128 0x2
 407 0085 04       		.byte	0x4
ARM GAS  C:\Users\Jeppe\AppData\Local\Temp\cceUmyqg.s 			page 10


 408 0086 07       		.byte	0x7
 409 0087 D9010000 		.4byte	.LASF12
 410 008b 04       		.uleb128 0x4
 411 008c 01       		.byte	0x1
 412 008d BC010000 		.4byte	.LASF25
 413 0091 01       		.byte	0x1
 414 0092 13       		.byte	0x13
 415 0093 01       		.byte	0x1
 416 0094 00000000 		.4byte	.LFB33
 417 0098 0C000000 		.4byte	.LFE33
 418 009c 00000000 		.4byte	.LLST0
 419 00a0 01       		.byte	0x1
 420 00a1 05       		.uleb128 0x5
 421 00a2 01       		.byte	0x1
 422 00a3 C5010000 		.4byte	.LASF16
 423 00a7 01       		.byte	0x1
 424 00a8 1A       		.byte	0x1a
 425 00a9 01       		.byte	0x1
 426 00aa 00000000 		.4byte	.LFB34
 427 00ae 64000000 		.4byte	.LFE34
 428 00b2 2C000000 		.4byte	.LLST1
 429 00b6 01       		.byte	0x1
 430 00b7 FF000000 		.4byte	0xff
 431 00bb 06       		.uleb128 0x6
 432 00bc 494400   		.ascii	"ID\000"
 433 00bf 01       		.byte	0x1
 434 00c0 1A       		.byte	0x1a
 435 00c1 61000000 		.4byte	0x61
 436 00c5 02       		.byte	0x2
 437 00c6 91       		.byte	0x91
 438 00c7 6C       		.sleb128 -20
 439 00c8 07       		.uleb128 0x7
 440 00c9 D2010000 		.4byte	.LASF13
 441 00cd 01       		.byte	0x1
 442 00ce 1A       		.byte	0x1a
 443 00cf 61000000 		.4byte	0x61
 444 00d3 02       		.byte	0x2
 445 00d4 91       		.byte	0x91
 446 00d5 68       		.sleb128 -24
 447 00d6 07       		.uleb128 0x7
 448 00d7 1B000000 		.4byte	.LASF14
 449 00db 01       		.byte	0x1
 450 00dc 1A       		.byte	0x1a
 451 00dd 61000000 		.4byte	0x61
 452 00e1 02       		.byte	0x2
 453 00e2 91       		.byte	0x91
 454 00e3 64       		.sleb128 -28
 455 00e4 07       		.uleb128 0x7
 456 00e5 50010000 		.4byte	.LASF15
 457 00e9 01       		.byte	0x1
 458 00ea 1A       		.byte	0x1a
 459 00eb 61000000 		.4byte	0x61
 460 00ef 02       		.byte	0x2
 461 00f0 91       		.byte	0x91
 462 00f1 60       		.sleb128 -32
 463 00f2 08       		.uleb128 0x8
 464 00f3 6900     		.ascii	"i\000"
ARM GAS  C:\Users\Jeppe\AppData\Local\Temp\cceUmyqg.s 			page 11


 465 00f5 01       		.byte	0x1
 466 00f6 1C       		.byte	0x1c
 467 00f7 61000000 		.4byte	0x61
 468 00fb 02       		.byte	0x2
 469 00fc 91       		.byte	0x91
 470 00fd 74       		.sleb128 -12
 471 00fe 00       		.byte	0
 472 00ff 09       		.uleb128 0x9
 473 0100 01       		.byte	0x1
 474 0101 42010000 		.4byte	.LASF17
 475 0105 01       		.byte	0x1
 476 0106 2B       		.byte	0x2b
 477 0107 01       		.byte	0x1
 478 0108 00000000 		.4byte	.LFB35
 479 010c 28010000 		.4byte	.LFE35
 480 0110 64000000 		.4byte	.LLST2
 481 0114 01       		.byte	0x1
 482 0115 5E010000 		.4byte	0x15e
 483 0119 0A       		.uleb128 0xa
 484 011a 32010000 		.4byte	.LASF18
 485 011e 01       		.byte	0x1
 486 011f 2D       		.byte	0x2d
 487 0120 5E010000 		.4byte	0x15e
 488 0124 02       		.byte	0x2
 489 0125 91       		.byte	0x91
 490 0126 6C       		.sleb128 -20
 491 0127 0A       		.uleb128 0xa
 492 0128 8D010000 		.4byte	.LASF19
 493 012c 01       		.byte	0x1
 494 012d 2E       		.byte	0x2e
 495 012e 5E010000 		.4byte	0x15e
 496 0132 02       		.byte	0x2
 497 0133 91       		.byte	0x91
 498 0134 64       		.sleb128 -28
 499 0135 0A       		.uleb128 0xa
 500 0136 22000000 		.4byte	.LASF20
 501 013a 01       		.byte	0x1
 502 013b 2F       		.byte	0x2f
 503 013c 5E010000 		.4byte	0x15e
 504 0140 02       		.byte	0x2
 505 0141 91       		.byte	0x91
 506 0142 5C       		.sleb128 -36
 507 0143 0A       		.uleb128 0xa
 508 0144 1A010000 		.4byte	.LASF21
 509 0148 01       		.byte	0x1
 510 0149 30       		.byte	0x30
 511 014a 5E010000 		.4byte	0x15e
 512 014e 02       		.byte	0x2
 513 014f 91       		.byte	0x91
 514 0150 54       		.sleb128 -44
 515 0151 08       		.uleb128 0x8
 516 0152 6900     		.ascii	"i\000"
 517 0154 01       		.byte	0x1
 518 0155 60       		.byte	0x60
 519 0156 61000000 		.4byte	0x61
 520 015a 02       		.byte	0x2
 521 015b 91       		.byte	0x91
ARM GAS  C:\Users\Jeppe\AppData\Local\Temp\cceUmyqg.s 			page 12


 522 015c 74       		.sleb128 -12
 523 015d 00       		.byte	0
 524 015e 0B       		.uleb128 0xb
 525 015f 7D000000 		.4byte	0x7d
 526 0163 6E010000 		.4byte	0x16e
 527 0167 0C       		.uleb128 0xc
 528 0168 84000000 		.4byte	0x84
 529 016c 05       		.byte	0x5
 530 016d 00       		.byte	0
 531 016e 0B       		.uleb128 0xb
 532 016f 7D000000 		.4byte	0x7d
 533 0173 7E010000 		.4byte	0x17e
 534 0177 0C       		.uleb128 0xc
 535 0178 84000000 		.4byte	0x84
 536 017c 0F       		.byte	0xf
 537 017d 00       		.byte	0
 538 017e 0D       		.uleb128 0xd
 539 017f 61010000 		.4byte	.LASF26
 540 0183 01       		.byte	0x1
 541 0184 11       		.byte	0x11
 542 0185 6E010000 		.4byte	0x16e
 543 0189 01       		.byte	0x1
 544 018a 05       		.byte	0x5
 545 018b 03       		.byte	0x3
 546 018c 00000000 		.4byte	dataArray
 547 0190 00       		.byte	0
 548              		.section	.debug_abbrev,"",%progbits
 549              	.Ldebug_abbrev0:
 550 0000 01       		.uleb128 0x1
 551 0001 11       		.uleb128 0x11
 552 0002 01       		.byte	0x1
 553 0003 25       		.uleb128 0x25
 554 0004 0E       		.uleb128 0xe
 555 0005 13       		.uleb128 0x13
 556 0006 0B       		.uleb128 0xb
 557 0007 03       		.uleb128 0x3
 558 0008 0E       		.uleb128 0xe
 559 0009 1B       		.uleb128 0x1b
 560 000a 0E       		.uleb128 0xe
 561 000b 55       		.uleb128 0x55
 562 000c 06       		.uleb128 0x6
 563 000d 11       		.uleb128 0x11
 564 000e 01       		.uleb128 0x1
 565 000f 52       		.uleb128 0x52
 566 0010 01       		.uleb128 0x1
 567 0011 10       		.uleb128 0x10
 568 0012 06       		.uleb128 0x6
 569 0013 00       		.byte	0
 570 0014 00       		.byte	0
 571 0015 02       		.uleb128 0x2
 572 0016 24       		.uleb128 0x24
 573 0017 00       		.byte	0
 574 0018 0B       		.uleb128 0xb
 575 0019 0B       		.uleb128 0xb
 576 001a 3E       		.uleb128 0x3e
 577 001b 0B       		.uleb128 0xb
 578 001c 03       		.uleb128 0x3
ARM GAS  C:\Users\Jeppe\AppData\Local\Temp\cceUmyqg.s 			page 13


 579 001d 0E       		.uleb128 0xe
 580 001e 00       		.byte	0
 581 001f 00       		.byte	0
 582 0020 03       		.uleb128 0x3
 583 0021 24       		.uleb128 0x24
 584 0022 00       		.byte	0
 585 0023 0B       		.uleb128 0xb
 586 0024 0B       		.uleb128 0xb
 587 0025 3E       		.uleb128 0x3e
 588 0026 0B       		.uleb128 0xb
 589 0027 03       		.uleb128 0x3
 590 0028 08       		.uleb128 0x8
 591 0029 00       		.byte	0
 592 002a 00       		.byte	0
 593 002b 04       		.uleb128 0x4
 594 002c 2E       		.uleb128 0x2e
 595 002d 00       		.byte	0
 596 002e 3F       		.uleb128 0x3f
 597 002f 0C       		.uleb128 0xc
 598 0030 03       		.uleb128 0x3
 599 0031 0E       		.uleb128 0xe
 600 0032 3A       		.uleb128 0x3a
 601 0033 0B       		.uleb128 0xb
 602 0034 3B       		.uleb128 0x3b
 603 0035 0B       		.uleb128 0xb
 604 0036 27       		.uleb128 0x27
 605 0037 0C       		.uleb128 0xc
 606 0038 11       		.uleb128 0x11
 607 0039 01       		.uleb128 0x1
 608 003a 12       		.uleb128 0x12
 609 003b 01       		.uleb128 0x1
 610 003c 40       		.uleb128 0x40
 611 003d 06       		.uleb128 0x6
 612 003e 9642     		.uleb128 0x2116
 613 0040 0C       		.uleb128 0xc
 614 0041 00       		.byte	0
 615 0042 00       		.byte	0
 616 0043 05       		.uleb128 0x5
 617 0044 2E       		.uleb128 0x2e
 618 0045 01       		.byte	0x1
 619 0046 3F       		.uleb128 0x3f
 620 0047 0C       		.uleb128 0xc
 621 0048 03       		.uleb128 0x3
 622 0049 0E       		.uleb128 0xe
 623 004a 3A       		.uleb128 0x3a
 624 004b 0B       		.uleb128 0xb
 625 004c 3B       		.uleb128 0x3b
 626 004d 0B       		.uleb128 0xb
 627 004e 27       		.uleb128 0x27
 628 004f 0C       		.uleb128 0xc
 629 0050 11       		.uleb128 0x11
 630 0051 01       		.uleb128 0x1
 631 0052 12       		.uleb128 0x12
 632 0053 01       		.uleb128 0x1
 633 0054 40       		.uleb128 0x40
 634 0055 06       		.uleb128 0x6
 635 0056 9742     		.uleb128 0x2117
ARM GAS  C:\Users\Jeppe\AppData\Local\Temp\cceUmyqg.s 			page 14


 636 0058 0C       		.uleb128 0xc
 637 0059 01       		.uleb128 0x1
 638 005a 13       		.uleb128 0x13
 639 005b 00       		.byte	0
 640 005c 00       		.byte	0
 641 005d 06       		.uleb128 0x6
 642 005e 05       		.uleb128 0x5
 643 005f 00       		.byte	0
 644 0060 03       		.uleb128 0x3
 645 0061 08       		.uleb128 0x8
 646 0062 3A       		.uleb128 0x3a
 647 0063 0B       		.uleb128 0xb
 648 0064 3B       		.uleb128 0x3b
 649 0065 0B       		.uleb128 0xb
 650 0066 49       		.uleb128 0x49
 651 0067 13       		.uleb128 0x13
 652 0068 02       		.uleb128 0x2
 653 0069 0A       		.uleb128 0xa
 654 006a 00       		.byte	0
 655 006b 00       		.byte	0
 656 006c 07       		.uleb128 0x7
 657 006d 05       		.uleb128 0x5
 658 006e 00       		.byte	0
 659 006f 03       		.uleb128 0x3
 660 0070 0E       		.uleb128 0xe
 661 0071 3A       		.uleb128 0x3a
 662 0072 0B       		.uleb128 0xb
 663 0073 3B       		.uleb128 0x3b
 664 0074 0B       		.uleb128 0xb
 665 0075 49       		.uleb128 0x49
 666 0076 13       		.uleb128 0x13
 667 0077 02       		.uleb128 0x2
 668 0078 0A       		.uleb128 0xa
 669 0079 00       		.byte	0
 670 007a 00       		.byte	0
 671 007b 08       		.uleb128 0x8
 672 007c 34       		.uleb128 0x34
 673 007d 00       		.byte	0
 674 007e 03       		.uleb128 0x3
 675 007f 08       		.uleb128 0x8
 676 0080 3A       		.uleb128 0x3a
 677 0081 0B       		.uleb128 0xb
 678 0082 3B       		.uleb128 0x3b
 679 0083 0B       		.uleb128 0xb
 680 0084 49       		.uleb128 0x49
 681 0085 13       		.uleb128 0x13
 682 0086 02       		.uleb128 0x2
 683 0087 0A       		.uleb128 0xa
 684 0088 00       		.byte	0
 685 0089 00       		.byte	0
 686 008a 09       		.uleb128 0x9
 687 008b 2E       		.uleb128 0x2e
 688 008c 01       		.byte	0x1
 689 008d 3F       		.uleb128 0x3f
 690 008e 0C       		.uleb128 0xc
 691 008f 03       		.uleb128 0x3
 692 0090 0E       		.uleb128 0xe
ARM GAS  C:\Users\Jeppe\AppData\Local\Temp\cceUmyqg.s 			page 15


 693 0091 3A       		.uleb128 0x3a
 694 0092 0B       		.uleb128 0xb
 695 0093 3B       		.uleb128 0x3b
 696 0094 0B       		.uleb128 0xb
 697 0095 27       		.uleb128 0x27
 698 0096 0C       		.uleb128 0xc
 699 0097 11       		.uleb128 0x11
 700 0098 01       		.uleb128 0x1
 701 0099 12       		.uleb128 0x12
 702 009a 01       		.uleb128 0x1
 703 009b 40       		.uleb128 0x40
 704 009c 06       		.uleb128 0x6
 705 009d 9642     		.uleb128 0x2116
 706 009f 0C       		.uleb128 0xc
 707 00a0 01       		.uleb128 0x1
 708 00a1 13       		.uleb128 0x13
 709 00a2 00       		.byte	0
 710 00a3 00       		.byte	0
 711 00a4 0A       		.uleb128 0xa
 712 00a5 34       		.uleb128 0x34
 713 00a6 00       		.byte	0
 714 00a7 03       		.uleb128 0x3
 715 00a8 0E       		.uleb128 0xe
 716 00a9 3A       		.uleb128 0x3a
 717 00aa 0B       		.uleb128 0xb
 718 00ab 3B       		.uleb128 0x3b
 719 00ac 0B       		.uleb128 0xb
 720 00ad 49       		.uleb128 0x49
 721 00ae 13       		.uleb128 0x13
 722 00af 02       		.uleb128 0x2
 723 00b0 0A       		.uleb128 0xa
 724 00b1 00       		.byte	0
 725 00b2 00       		.byte	0
 726 00b3 0B       		.uleb128 0xb
 727 00b4 01       		.uleb128 0x1
 728 00b5 01       		.byte	0x1
 729 00b6 49       		.uleb128 0x49
 730 00b7 13       		.uleb128 0x13
 731 00b8 01       		.uleb128 0x1
 732 00b9 13       		.uleb128 0x13
 733 00ba 00       		.byte	0
 734 00bb 00       		.byte	0
 735 00bc 0C       		.uleb128 0xc
 736 00bd 21       		.uleb128 0x21
 737 00be 00       		.byte	0
 738 00bf 49       		.uleb128 0x49
 739 00c0 13       		.uleb128 0x13
 740 00c1 2F       		.uleb128 0x2f
 741 00c2 0B       		.uleb128 0xb
 742 00c3 00       		.byte	0
 743 00c4 00       		.byte	0
 744 00c5 0D       		.uleb128 0xd
 745 00c6 34       		.uleb128 0x34
 746 00c7 00       		.byte	0
 747 00c8 03       		.uleb128 0x3
 748 00c9 0E       		.uleb128 0xe
 749 00ca 3A       		.uleb128 0x3a
ARM GAS  C:\Users\Jeppe\AppData\Local\Temp\cceUmyqg.s 			page 16


 750 00cb 0B       		.uleb128 0xb
 751 00cc 3B       		.uleb128 0x3b
 752 00cd 0B       		.uleb128 0xb
 753 00ce 49       		.uleb128 0x49
 754 00cf 13       		.uleb128 0x13
 755 00d0 3F       		.uleb128 0x3f
 756 00d1 0C       		.uleb128 0xc
 757 00d2 02       		.uleb128 0x2
 758 00d3 0A       		.uleb128 0xa
 759 00d4 00       		.byte	0
 760 00d5 00       		.byte	0
 761 00d6 00       		.byte	0
 762              		.section	.debug_loc,"",%progbits
 763              	.Ldebug_loc0:
 764              	.LLST0:
 765 0000 00000000 		.4byte	.LFB33
 766 0004 02000000 		.4byte	.LCFI0
 767 0008 0200     		.2byte	0x2
 768 000a 7D       		.byte	0x7d
 769 000b 00       		.sleb128 0
 770 000c 02000000 		.4byte	.LCFI0
 771 0010 04000000 		.4byte	.LCFI1
 772 0014 0200     		.2byte	0x2
 773 0016 7D       		.byte	0x7d
 774 0017 08       		.sleb128 8
 775 0018 04000000 		.4byte	.LCFI1
 776 001c 0C000000 		.4byte	.LFE33
 777 0020 0200     		.2byte	0x2
 778 0022 77       		.byte	0x77
 779 0023 08       		.sleb128 8
 780 0024 00000000 		.4byte	0
 781 0028 00000000 		.4byte	0
 782              	.LLST1:
 783 002c 00000000 		.4byte	.LFB34
 784 0030 02000000 		.4byte	.LCFI2
 785 0034 0200     		.2byte	0x2
 786 0036 7D       		.byte	0x7d
 787 0037 00       		.sleb128 0
 788 0038 02000000 		.4byte	.LCFI2
 789 003c 04000000 		.4byte	.LCFI3
 790 0040 0200     		.2byte	0x2
 791 0042 7D       		.byte	0x7d
 792 0043 08       		.sleb128 8
 793 0044 04000000 		.4byte	.LCFI3
 794 0048 06000000 		.4byte	.LCFI4
 795 004c 0200     		.2byte	0x2
 796 004e 7D       		.byte	0x7d
 797 004f 20       		.sleb128 32
 798 0050 06000000 		.4byte	.LCFI4
 799 0054 64000000 		.4byte	.LFE34
 800 0058 0200     		.2byte	0x2
 801 005a 77       		.byte	0x77
 802 005b 20       		.sleb128 32
 803 005c 00000000 		.4byte	0
 804 0060 00000000 		.4byte	0
 805              	.LLST2:
 806 0064 00000000 		.4byte	.LFB35
ARM GAS  C:\Users\Jeppe\AppData\Local\Temp\cceUmyqg.s 			page 17


 807 0068 02000000 		.4byte	.LCFI5
 808 006c 0200     		.2byte	0x2
 809 006e 7D       		.byte	0x7d
 810 006f 00       		.sleb128 0
 811 0070 02000000 		.4byte	.LCFI5
 812 0074 04000000 		.4byte	.LCFI6
 813 0078 0200     		.2byte	0x2
 814 007a 7D       		.byte	0x7d
 815 007b 08       		.sleb128 8
 816 007c 04000000 		.4byte	.LCFI6
 817 0080 06000000 		.4byte	.LCFI7
 818 0084 0200     		.2byte	0x2
 819 0086 7D       		.byte	0x7d
 820 0087 30       		.sleb128 48
 821 0088 06000000 		.4byte	.LCFI7
 822 008c 28010000 		.4byte	.LFE35
 823 0090 0200     		.2byte	0x2
 824 0092 77       		.byte	0x77
 825 0093 30       		.sleb128 48
 826 0094 00000000 		.4byte	0
 827 0098 00000000 		.4byte	0
 828              		.section	.debug_aranges,"",%progbits
 829 0000 2C000000 		.4byte	0x2c
 830 0004 0200     		.2byte	0x2
 831 0006 00000000 		.4byte	.Ldebug_info0
 832 000a 04       		.byte	0x4
 833 000b 00       		.byte	0
 834 000c 0000     		.2byte	0
 835 000e 0000     		.2byte	0
 836 0010 00000000 		.4byte	.LFB33
 837 0014 0C000000 		.4byte	.LFE33-.LFB33
 838 0018 00000000 		.4byte	.LFB34
 839 001c 64000000 		.4byte	.LFE34-.LFB34
 840 0020 00000000 		.4byte	.LFB35
 841 0024 28010000 		.4byte	.LFE35-.LFB35
 842 0028 00000000 		.4byte	0
 843 002c 00000000 		.4byte	0
 844              		.section	.debug_ranges,"",%progbits
 845              	.Ldebug_ranges0:
 846 0000 00000000 		.4byte	.LFB33
 847 0004 0C000000 		.4byte	.LFE33
 848 0008 00000000 		.4byte	.LFB34
 849 000c 64000000 		.4byte	.LFE34
 850 0010 00000000 		.4byte	.LFB35
 851 0014 28010000 		.4byte	.LFE35
 852 0018 00000000 		.4byte	0
 853 001c 00000000 		.4byte	0
 854              		.section	.debug_line,"",%progbits
 855              	.Ldebug_line0:
 856 0000 A6000000 		.section	.debug_str,"MS",%progbits,1
 856      02002100 
 856      00000201 
 856      FB0E0D00 
 856      01010101 
 857              	.LASF6:
 858 0000 6C6F6E67 		.ascii	"long long int\000"
 858      206C6F6E 
ARM GAS  C:\Users\Jeppe\AppData\Local\Temp\cceUmyqg.s 			page 18


 858      6720696E 
 858      7400
 859              	.LASF8:
 860 000e 756E7369 		.ascii	"unsigned int\000"
 860      676E6564 
 860      20696E74 
 860      00
 861              	.LASF14:
 862 001b 795F6461 		.ascii	"y_data\000"
 862      746100
 863              	.LASF20:
 864 0022 70726F78 		.ascii	"proxArray\000"
 864      41727261 
 864      7900
 865              	.LASF23:
 866 002c 2E5C4254 		.ascii	".\\BTUART.c\000"
 866      55415254 
 866      2E6300
 867              	.LASF22:
 868 0037 474E5520 		.ascii	"GNU C 4.7.3 20130312 (release) [ARM/embedded-4_7-br"
 868      4320342E 
 868      372E3320 
 868      32303133 
 868      30333132 
 869 006a 616E6368 		.ascii	"anch revision 196615]\000"
 869      20726576 
 869      6973696F 
 869      6E203139 
 869      36363135 
 870              	.LASF7:
 871 0080 6C6F6E67 		.ascii	"long long unsigned int\000"
 871      206C6F6E 
 871      6720756E 
 871      7369676E 
 871      65642069 
 872              	.LASF24:
 873 0097 433A5C55 		.ascii	"C:\\Users\\Jeppe\\Documents\\Engineer\\3_Semester\\"
 873      73657273 
 873      5C4A6570 
 873      70655C44 
 873      6F63756D 
 874 00c4 45335052 		.ascii	"E3PRJ3\\Design og implementering\\Body SW\\Body_mai"
 874      4A335C44 
 874      65736967 
 874      6E206F67 
 874      20696D70 
 875 00f4 6E5F5665 		.ascii	"n_Version_4\\Body_main\\Body_main.cydsn\000"
 875      7273696F 
 875      6E5F345C 
 875      426F6479 
 875      5F6D6169 
 876              	.LASF21:
 877 011a 666C6578 		.ascii	"flexArray\000"
 877      41727261 
 877      7900
 878              	.LASF1:
 879 0124 756E7369 		.ascii	"unsigned char\000"
ARM GAS  C:\Users\Jeppe\AppData\Local\Temp\cceUmyqg.s 			page 19


 879      676E6564 
 879      20636861 
 879      7200
 880              	.LASF18:
 881 0132 61636365 		.ascii	"accelArray\000"
 881      6C417272 
 881      617900
 882              	.LASF11:
 883 013d 63686172 		.ascii	"char\000"
 883      00
 884              	.LASF17:
 885 0142 73656E64 		.ascii	"sendDataArray\000"
 885      44617461 
 885      41727261 
 885      7900
 886              	.LASF15:
 887 0150 7A5F6461 		.ascii	"z_data\000"
 887      746100
 888              	.LASF2:
 889 0157 73686F72 		.ascii	"short int\000"
 889      7420696E 
 889      7400
 890              	.LASF26:
 891 0161 64617461 		.ascii	"dataArray\000"
 891      41727261 
 891      7900
 892              	.LASF5:
 893 016b 6C6F6E67 		.ascii	"long unsigned int\000"
 893      20756E73 
 893      69676E65 
 893      6420696E 
 893      7400
 894              	.LASF10:
 895 017d 646F7562 		.ascii	"double\000"
 895      6C6500
 896              	.LASF4:
 897 0184 6C6F6E67 		.ascii	"long int\000"
 897      20696E74 
 897      00
 898              	.LASF19:
 899 018d 6779726F 		.ascii	"gyroArray\000"
 899      41727261 
 899      7900
 900              	.LASF3:
 901 0197 73686F72 		.ascii	"short unsigned int\000"
 901      7420756E 
 901      7369676E 
 901      65642069 
 901      6E7400
 902              	.LASF0:
 903 01aa 7369676E 		.ascii	"signed char\000"
 903      65642063 
 903      68617200 
 904              	.LASF9:
 905 01b6 666C6F61 		.ascii	"float\000"
 905      7400
 906              	.LASF25:
ARM GAS  C:\Users\Jeppe\AppData\Local\Temp\cceUmyqg.s 			page 20


 907 01bc 696E6974 		.ascii	"initUART\000"
 907      55415254 
 907      00
 908              	.LASF16:
 909 01c5 73657464 		.ascii	"setdataArray\000"
 909      61746141 
 909      72726179 
 909      00
 910              	.LASF13:
 911 01d2 785F6461 		.ascii	"x_data\000"
 911      746100
 912              	.LASF12:
 913 01d9 73697A65 		.ascii	"sizetype\000"
 913      74797065 
 913      00
 914              		.ident	"GCC: (GNU Tools for ARM Embedded Processors) 4.7.3 20130312 (release) [ARM/embedded-4_7-br
