ARM GAS  C:\Users\Jeppe\AppData\Local\Temp\cclnY3IN.s 			page 1


   1              		.cpu cortex-m0
   2              		.fpu softvfp
   3              		.eabi_attribute 20, 1
   4              		.eabi_attribute 21, 1
   5              		.eabi_attribute 23, 3
   6              		.eabi_attribute 24, 1
   7              		.eabi_attribute 25, 1
   8              		.eabi_attribute 26, 1
   9              		.eabi_attribute 30, 6
  10              		.eabi_attribute 34, 0
  11              		.eabi_attribute 18, 4
  12              		.code	16
  13              		.file	"main.c"
  14              		.text
  15              	.Ltext0:
  16              		.cfi_sections	.debug_frame
  17              		.global	ready_to_send_flag
  18              		.bss
  19              		.align	2
  20              		.type	ready_to_send_flag, %object
  21              		.size	ready_to_send_flag, 4
  22              	ready_to_send_flag:
  23 0000 00000000 		.space	4
  24              		.section	.text.main,"ax",%progbits
  25              		.align	2
  26              		.global	main
  27              		.code	16
  28              		.thumb_func
  29              		.type	main, %function
  30              	main:
  31              	.LFB33:
  32              		.file 1 ".\\main.c"
   1:.\main.c      **** /* ========================================
   2:.\main.c      ****  *
   3:.\main.c      ****  * Copyright YOUR COMPANY, THE YEAR
   4:.\main.c      ****  * All Rights Reserved
   5:.\main.c      ****  * UNPUBLISHED, LICENSED SOFTWARE.
   6:.\main.c      ****  *
   7:.\main.c      ****  * CONFIDENTIAL AND PROPRIETARY INFORMATION
   8:.\main.c      ****  * WHICH IS THE PROPERTY OF your company.
   9:.\main.c      ****  *
  10:.\main.c      ****  * ========================================
  11:.\main.c      **** */
  12:.\main.c      **** #include <project.h>
  13:.\main.c      **** #include "stdlib.h"
  14:.\main.c      **** #include <stdio.h>
  15:.\main.c      **** 
  16:.\main.c      **** #include "BTUART.h"
  17:.\main.c      **** #include "Sensor.h"
  18:.\main.c      **** 
  19:.\main.c      **** 
  20:.\main.c      **** //Accelerometer ADXL345 defines
  21:.\main.c      **** #define ACCEL_ADDRESS 0x53 // jumperen sættes til GND 
  22:.\main.c      **** #define PWR_CTRL_REG 0x2D //Power control registeret Datablad side 26
  23:.\main.c      **** #define PWR_MODE (1<<3) // Sættes i measurement mode, standby til den skal måle (Strømbesparende
  24:.\main.c      **** #define DATAX0 0x32 //least significant 
  25:.\main.c      **** #define DATAX1 0x33 //most significant
ARM GAS  C:\Users\Jeppe\AppData\Local\Temp\cclnY3IN.s 			page 2


  26:.\main.c      **** #define DATAY0 0x34
  27:.\main.c      **** #define DATAY1 0x35
  28:.\main.c      **** #define DATAZ0 0x36
  29:.\main.c      **** #define DATAZ1 0x37
  30:.\main.c      **** 
  31:.\main.c      **** //Gyroscope MPU6050 defines 
  32:.\main.c      **** #define GYRO_ADDRESS 0x68 //Jumperen sættes til GND 
  33:.\main.c      **** #define GYRO_XOUT_H 0x43 // Most significant
  34:.\main.c      **** #define GYRO_XOUT_L 0x44 // Least significant 
  35:.\main.c      **** #define GYRO_YOUT_H 0x45
  36:.\main.c      **** #define GYRO_YOUT_L 0x46
  37:.\main.c      **** #define GYRO_ZOUT_H 0x47
  38:.\main.c      **** #define GYRO_ZOUT_L 0x48
  39:.\main.c      **** 
  40:.\main.c      **** 
  41:.\main.c      **** 
  42:.\main.c      **** 
  43:.\main.c      **** 
  44:.\main.c      **** 
  45:.\main.c      **** //Prototyper
  46:.\main.c      **** void initSensors(void);
  47:.\main.c      **** void initADXL345(void);
  48:.\main.c      **** void initMPU6050(void);
  49:.\main.c      **** 
  50:.\main.c      **** // ISR prototype
  51:.\main.c      **** CY_ISR_PROTO(ISR_BT_Handler);
  52:.\main.c      **** 
  53:.\main.c      **** // Flags
  54:.\main.c      **** int ready_to_send_flag = 0;
  55:.\main.c      **** 
  56:.\main.c      **** 
  57:.\main.c      **** 
  58:.\main.c      **** int main()
  59:.\main.c      **** {
  33              		.loc 1 59 0
  34              		.cfi_startproc
  35 0000 80B5     		push	{r7, lr}
  36              	.LCFI0:
  37              		.cfi_def_cfa_offset 8
  38              		.cfi_offset 7, -8
  39              		.cfi_offset 14, -4
  40 0002 00AF     		add	r7, sp, #0
  41              	.LCFI1:
  42              		.cfi_def_cfa_register 7
  60:.\main.c      ****     initUART();
  43              		.loc 1 60 0
  44 0004 FFF7FEFF 		bl	initUART
  61:.\main.c      ****     initSensors();
  45              		.loc 1 61 0
  46 0008 FFF7FEFF 		bl	initSensors
  47              	.L2:
  62:.\main.c      ****     
  63:.\main.c      **** 	//setupI2C(); //Spørg Kristian om denne?
  64:.\main.c      ****     
  65:.\main.c      ****     //ISR enable
  66:.\main.c      **** 	//isr_sendBT_StartEx(ISR_BT_Handler);
  67:.\main.c      ****     //CyGlobalIntEnable;
ARM GAS  C:\Users\Jeppe\AppData\Local\Temp\cclnY3IN.s 			page 3


  68:.\main.c      ****      //Timer_1_Start();
  69:.\main.c      ****     
  70:.\main.c      **** 	while(1)
  71:.\main.c      ****     {
  72:.\main.c      ****         setupI2C();
  48              		.loc 1 72 0 discriminator 1
  49 000c FFF7FEFF 		bl	setupI2C
  73:.\main.c      ****         readAllSensors();
  50              		.loc 1 73 0 discriminator 1
  51 0010 FFF7FEFF 		bl	readAllSensors
  74:.\main.c      ****         //Tjekker at data bliver samlet korrekt. 
  75:.\main.c      ****         convSensData();
  52              		.loc 1 75 0 discriminator 1
  53 0014 FFF7FEFF 		bl	convSensData
  76:.\main.c      ****         
  77:.\main.c      ****        
  78:.\main.c      ****         sendDataArray(); 
  54              		.loc 1 78 0 discriminator 1
  55 0018 FFF7FEFF 		bl	sendDataArray
  79:.\main.c      ****         CyDelay(7);
  56              		.loc 1 79 0 discriminator 1
  57 001c 0720     		mov	r0, #7
  58 001e FFF7FEFF 		bl	CyDelay
  80:.\main.c      ****      
  81:.\main.c      ****     }     
  59              		.loc 1 81 0 discriminator 1
  60 0022 F3E7     		b	.L2
  61              		.cfi_endproc
  62              	.LFE33:
  63              		.size	main, .-main
  64              		.section	.text.ISR_BT_Handler,"ax",%progbits
  65              		.align	2
  66              		.global	ISR_BT_Handler
  67              		.code	16
  68              		.thumb_func
  69              		.type	ISR_BT_Handler, %function
  70              	ISR_BT_Handler:
  71              	.LFB34:
  82:.\main.c      ****             
  83:.\main.c      **** 		
  84:.\main.c      **** 	return 0;
  85:.\main.c      **** }
  86:.\main.c      **** 
  87:.\main.c      **** CY_ISR(ISR_BT_Handler)
  88:.\main.c      **** {
  72              		.loc 1 88 0
  73              		.cfi_startproc
  74 0000 80B5     		push	{r7, lr}
  75              	.LCFI2:
  76              		.cfi_def_cfa_offset 8
  77              		.cfi_offset 7, -8
  78              		.cfi_offset 14, -4
  79 0002 00AF     		add	r7, sp, #0
  80              	.LCFI3:
  81              		.cfi_def_cfa_register 7
  89:.\main.c      ****         //SEND DATA VIA BT
  90:.\main.c      ****         sendDataArray(); 
ARM GAS  C:\Users\Jeppe\AppData\Local\Temp\cclnY3IN.s 			page 4


  82              		.loc 1 90 0
  83 0004 FFF7FEFF 		bl	sendDataArray
  91:.\main.c      ****         ready_to_send_flag = 0;
  84              		.loc 1 91 0
  85 0008 024B     		ldr	r3, .L4
  86 000a 0022     		mov	r2, #0
  87 000c 1A60     		str	r2, [r3]
  92:.\main.c      **** }
  88              		.loc 1 92 0
  89 000e BD46     		mov	sp, r7
  90              		@ sp needed for prologue
  91 0010 80BD     		pop	{r7, pc}
  92              	.L5:
  93 0012 C046     		.align	2
  94              	.L4:
  95 0014 00000000 		.word	ready_to_send_flag
  96              		.cfi_endproc
  97              	.LFE34:
  98              		.size	ISR_BT_Handler, .-ISR_BT_Handler
  99              		.section	.text.initSensors,"ax",%progbits
 100              		.align	2
 101              		.global	initSensors
 102              		.code	16
 103              		.thumb_func
 104              		.type	initSensors, %function
 105              	initSensors:
 106              	.LFB35:
  93:.\main.c      **** 
  94:.\main.c      **** 
  95:.\main.c      **** 
  96:.\main.c      **** void initSensors()
  97:.\main.c      **** {	
 107              		.loc 1 97 0
 108              		.cfi_startproc
 109 0000 80B5     		push	{r7, lr}
 110              	.LCFI4:
 111              		.cfi_def_cfa_offset 8
 112              		.cfi_offset 7, -8
 113              		.cfi_offset 14, -4
 114 0002 00AF     		add	r7, sp, #0
 115              	.LCFI5:
 116              		.cfi_def_cfa_register 7
  98:.\main.c      **** 	/***** INIT INDIVIDUAL SENSORS *****/
  99:.\main.c      **** 	//initMPU6050();	//Gyroscope
 100:.\main.c      **** 	initADXL345();	//Accellerometer
 117              		.loc 1 100 0
 118 0004 FFF7FEFF 		bl	initADXL345
 101:.\main.c      **** 	// ..osv
 102:.\main.c      **** }
 119              		.loc 1 102 0
 120 0008 BD46     		mov	sp, r7
 121              		@ sp needed for prologue
 122 000a 80BD     		pop	{r7, pc}
 123              		.cfi_endproc
 124              	.LFE35:
 125              		.size	initSensors, .-initSensors
 126              		.section	.text.initADXL345,"ax",%progbits
ARM GAS  C:\Users\Jeppe\AppData\Local\Temp\cclnY3IN.s 			page 5


 127              		.align	2
 128              		.global	initADXL345
 129              		.code	16
 130              		.thumb_func
 131              		.type	initADXL345, %function
 132              	initADXL345:
 133              	.LFB36:
 103:.\main.c      **** 
 104:.\main.c      **** 
 105:.\main.c      **** 
 106:.\main.c      **** //init accelerometer
 107:.\main.c      **** void initADXL345(void)
 108:.\main.c      **** {
 134              		.loc 1 108 0
 135              		.cfi_startproc
 136 0000 80B5     		push	{r7, lr}
 137              	.LCFI6:
 138              		.cfi_def_cfa_offset 8
 139              		.cfi_offset 7, -8
 140              		.cfi_offset 14, -4
 141 0002 00AF     		add	r7, sp, #0
 142              	.LCFI7:
 143              		.cfi_def_cfa_register 7
 109:.\main.c      **** 	// Fylder ADXL345 ind i sensor array'et. 
 110:.\main.c      **** 	setSensArray(ACCEL_ADDRESS, DATAX0, DEFAULT_DATA);
 144              		.loc 1 110 0
 145 0004 0123     		mov	r3, #1
 146 0006 5B42     		neg	r3, r3
 147 0008 5320     		mov	r0, #83
 148 000a 3221     		mov	r1, #50
 149 000c 1A1C     		mov	r2, r3
 150 000e FFF7FEFF 		bl	setSensArray
 111:.\main.c      **** 	setSensArray(ACCEL_ADDRESS, DATAX1, DEFAULT_DATA);
 151              		.loc 1 111 0
 152 0012 0123     		mov	r3, #1
 153 0014 5B42     		neg	r3, r3
 154 0016 5320     		mov	r0, #83
 155 0018 3321     		mov	r1, #51
 156 001a 1A1C     		mov	r2, r3
 157 001c FFF7FEFF 		bl	setSensArray
 112:.\main.c      **** 	setSensArray(ACCEL_ADDRESS, DATAY0, DEFAULT_DATA);
 158              		.loc 1 112 0
 159 0020 0123     		mov	r3, #1
 160 0022 5B42     		neg	r3, r3
 161 0024 5320     		mov	r0, #83
 162 0026 3421     		mov	r1, #52
 163 0028 1A1C     		mov	r2, r3
 164 002a FFF7FEFF 		bl	setSensArray
 113:.\main.c      **** 	setSensArray(ACCEL_ADDRESS, DATAY1, DEFAULT_DATA);
 165              		.loc 1 113 0
 166 002e 0123     		mov	r3, #1
 167 0030 5B42     		neg	r3, r3
 168 0032 5320     		mov	r0, #83
 169 0034 3521     		mov	r1, #53
 170 0036 1A1C     		mov	r2, r3
 171 0038 FFF7FEFF 		bl	setSensArray
 114:.\main.c      **** 	setSensArray(ACCEL_ADDRESS, DATAZ0, DEFAULT_DATA);
ARM GAS  C:\Users\Jeppe\AppData\Local\Temp\cclnY3IN.s 			page 6


 172              		.loc 1 114 0
 173 003c 0123     		mov	r3, #1
 174 003e 5B42     		neg	r3, r3
 175 0040 5320     		mov	r0, #83
 176 0042 3621     		mov	r1, #54
 177 0044 1A1C     		mov	r2, r3
 178 0046 FFF7FEFF 		bl	setSensArray
 115:.\main.c      **** 	setSensArray(ACCEL_ADDRESS, DATAZ1, DEFAULT_DATA);
 179              		.loc 1 115 0
 180 004a 0123     		mov	r3, #1
 181 004c 5B42     		neg	r3, r3
 182 004e 5320     		mov	r0, #83
 183 0050 3721     		mov	r1, #55
 184 0052 1A1C     		mov	r2, r3
 185 0054 FFF7FEFF 		bl	setSensArray
 116:.\main.c      **** 	
 117:.\main.c      **** 	//Opsætter til I2C 
 118:.\main.c      **** 	if(I2C_1_I2CMasterSendStart(ACCEL_ADDRESS, I2C_1_I2C_WRITE_XFER_MODE) == I2C_1_I2C_MSTR_NO_ERROR /
 186              		.loc 1 118 0
 187 0058 5320     		mov	r0, #83
 188 005a 0021     		mov	r1, #0
 189 005c FFF7FEFF 		bl	I2C_1_I2CMasterSendStart
 190 0060 031C     		mov	r3, r0
 191 0062 002B     		cmp	r3, #0
 192 0064 0DD1     		bne	.L7
 119:.\main.c      ****         && I2C_1_I2CMasterWriteByte(PWR_CTRL_REG) == I2C_1_I2C_MSTR_NO_ERROR // POWER CONTROL REGIS
 193              		.loc 1 119 0
 194 0066 2D20     		mov	r0, #45
 195 0068 FFF7FEFF 		bl	I2C_1_I2CMasterWriteByte
 196 006c 031C     		mov	r3, r0
 197 006e 002B     		cmp	r3, #0
 198 0070 07D1     		bne	.L7
 120:.\main.c      ****         && I2C_1_I2CMasterWriteByte(PWR_MODE) == I2C_1_I2C_MSTR_NO_ERROR) // Sættes i measurement 
 199              		.loc 1 120 0
 200 0072 0820     		mov	r0, #8
 201 0074 FFF7FEFF 		bl	I2C_1_I2CMasterWriteByte
 202 0078 031C     		mov	r3, r0
 203 007a 002B     		cmp	r3, #0
 204 007c 01D1     		bne	.L7
 121:.\main.c      **** 	handleI2CError();
 205              		.loc 1 121 0
 206 007e FFF7FEFF 		bl	handleI2CError
 207              	.L7:
 122:.\main.c      **** }
 208              		.loc 1 122 0
 209 0082 BD46     		mov	sp, r7
 210              		@ sp needed for prologue
 211 0084 80BD     		pop	{r7, pc}
 212              		.cfi_endproc
 213              	.LFE36:
 214              		.size	initADXL345, .-initADXL345
 215 0086 C046     		.section	.text.initMPU6050,"ax",%progbits
 216              		.align	2
 217              		.global	initMPU6050
 218              		.code	16
 219              		.thumb_func
 220              		.type	initMPU6050, %function
ARM GAS  C:\Users\Jeppe\AppData\Local\Temp\cclnY3IN.s 			page 7


 221              	initMPU6050:
 222              	.LFB37:
 123:.\main.c      **** 
 124:.\main.c      **** //init gyroscope 
 125:.\main.c      **** void initMPU6050(void)
 126:.\main.c      **** {
 223              		.loc 1 126 0
 224              		.cfi_startproc
 225 0000 80B5     		push	{r7, lr}
 226              	.LCFI8:
 227              		.cfi_def_cfa_offset 8
 228              		.cfi_offset 7, -8
 229              		.cfi_offset 14, -4
 230 0002 00AF     		add	r7, sp, #0
 231              	.LCFI9:
 232              		.cfi_def_cfa_register 7
 127:.\main.c      **** 	// Fylder ADXL345 ind i sensor array'et. 
 128:.\main.c      **** 	setSensArray(GYRO_ADDRESS, GYRO_XOUT_H, DEFAULT_DATA);
 233              		.loc 1 128 0
 234 0004 0123     		mov	r3, #1
 235 0006 5B42     		neg	r3, r3
 236 0008 6820     		mov	r0, #104
 237 000a 4321     		mov	r1, #67
 238 000c 1A1C     		mov	r2, r3
 239 000e FFF7FEFF 		bl	setSensArray
 129:.\main.c      ****     setSensArray(GYRO_ADDRESS, GYRO_XOUT_L, DEFAULT_DATA);
 240              		.loc 1 129 0
 241 0012 0123     		mov	r3, #1
 242 0014 5B42     		neg	r3, r3
 243 0016 6820     		mov	r0, #104
 244 0018 4421     		mov	r1, #68
 245 001a 1A1C     		mov	r2, r3
 246 001c FFF7FEFF 		bl	setSensArray
 130:.\main.c      **** 	setSensArray(GYRO_ADDRESS, GYRO_YOUT_H, DEFAULT_DATA);
 247              		.loc 1 130 0
 248 0020 0123     		mov	r3, #1
 249 0022 5B42     		neg	r3, r3
 250 0024 6820     		mov	r0, #104
 251 0026 4521     		mov	r1, #69
 252 0028 1A1C     		mov	r2, r3
 253 002a FFF7FEFF 		bl	setSensArray
 131:.\main.c      **** 	setSensArray(GYRO_ADDRESS, GYRO_YOUT_L, DEFAULT_DATA);
 254              		.loc 1 131 0
 255 002e 0123     		mov	r3, #1
 256 0030 5B42     		neg	r3, r3
 257 0032 6820     		mov	r0, #104
 258 0034 4621     		mov	r1, #70
 259 0036 1A1C     		mov	r2, r3
 260 0038 FFF7FEFF 		bl	setSensArray
 132:.\main.c      **** 	setSensArray(GYRO_ADDRESS, GYRO_ZOUT_H, DEFAULT_DATA);
 261              		.loc 1 132 0
 262 003c 0123     		mov	r3, #1
 263 003e 5B42     		neg	r3, r3
 264 0040 6820     		mov	r0, #104
 265 0042 4721     		mov	r1, #71
 266 0044 1A1C     		mov	r2, r3
 267 0046 FFF7FEFF 		bl	setSensArray
ARM GAS  C:\Users\Jeppe\AppData\Local\Temp\cclnY3IN.s 			page 8


 133:.\main.c      **** 	setSensArray(GYRO_ADDRESS, GYRO_ZOUT_L, DEFAULT_DATA);
 268              		.loc 1 133 0
 269 004a 0123     		mov	r3, #1
 270 004c 5B42     		neg	r3, r3
 271 004e 6820     		mov	r0, #104
 272 0050 4821     		mov	r1, #72
 273 0052 1A1C     		mov	r2, r3
 274 0054 FFF7FEFF 		bl	setSensArray
 134:.\main.c      **** 	
 135:.\main.c      **** 	//Opsætter til I2C 
 136:.\main.c      **** 	if(I2C_1_I2CMasterSendStart(GYRO_ADDRESS, I2C_1_I2C_WRITE_XFER_MODE) == I2C_1_I2C_MSTR_NO_ERROR) /
 275              		.loc 1 136 0
 276 0058 6820     		mov	r0, #104
 277 005a 0021     		mov	r1, #0
 278 005c FFF7FEFF 		bl	I2C_1_I2CMasterSendStart
 279 0060 031C     		mov	r3, r0
 280 0062 002B     		cmp	r3, #0
 281 0064 01D1     		bne	.L9
 137:.\main.c      **** 	handleI2CError();
 282              		.loc 1 137 0
 283 0066 FFF7FEFF 		bl	handleI2CError
 284              	.L9:
 138:.\main.c      **** }
 285              		.loc 1 138 0
 286 006a BD46     		mov	sp, r7
 287              		@ sp needed for prologue
 288 006c 80BD     		pop	{r7, pc}
 289              		.cfi_endproc
 290              	.LFE37:
 291              		.size	initMPU6050, .-initMPU6050
 292 006e C046     		.text
 293              	.Letext0: