ARM GAS  C:\Users\Jeppe\AppData\Local\Temp\ccKDN4Hq.s 			page 1


   1              		.cpu cortex-m0
   2              		.fpu softvfp
   3              		.eabi_attribute 20, 1
   4              		.eabi_attribute 21, 1
   5              		.eabi_attribute 23, 3
   6              		.eabi_attribute 24, 1
   7              		.eabi_attribute 25, 1
   8              		.eabi_attribute 26, 1
   9              		.eabi_attribute 30, 6
  10              		.eabi_attribute 34, 0
  11              		.eabi_attribute 18, 4
  12              		.code	16
  13              		.file	"Sensor.c"
  14              		.text
  15              	.Ltext0:
  16              		.cfi_sections	.debug_frame
  17              		.global	numOfRegToRead
  18              		.bss
  19              		.type	numOfRegToRead, %object
  20              		.size	numOfRegToRead, 1
  21              	numOfRegToRead:
  22 0000 00       		.space	1
  23              		.comm	sensArray,1152,4
  24              		.section	.text.setupI2C,"ax",%progbits
  25              		.align	2
  26              		.global	setupI2C
  27              		.code	16
  28              		.thumb_func
  29              		.type	setupI2C, %function
  30              	setupI2C:
  31              	.LFB33:
  32              		.file 1 ".\\Sensor.c"
   1:.\Sensor.c    **** /* ========================================
   2:.\Sensor.c    ****  *
   3:.\Sensor.c    ****  * Copyright YOUR COMPANY, THE YEAR
   4:.\Sensor.c    ****  * All Rights Reserved
   5:.\Sensor.c    ****  * UNPUBLISHED, LICENSED SOFTWARE.
   6:.\Sensor.c    ****  *
   7:.\Sensor.c    ****  * CONFIDENTIAL AND PROPRIETARY INFORMATION
   8:.\Sensor.c    ****  * WHICH IS THE PROPERTY OF your company.
   9:.\Sensor.c    ****  *
  10:.\Sensor.c    ****  * ========================================
  11:.\Sensor.c    **** */
  12:.\Sensor.c    **** 
  13:.\Sensor.c    **** #include "Sensor.h"
  14:.\Sensor.c    **** #include "BTUART.h"
  15:.\Sensor.c    **** 
  16:.\Sensor.c    **** 
  17:.\Sensor.c    **** 
  18:.\Sensor.c    **** uint8_t numOfRegToRead = 0;
  19:.\Sensor.c    **** int sensArray[MAXREGNUM][3];	//Array containing {i2c device address, registerToRead, dataTarget}
  20:.\Sensor.c    **** 								//Initeres til 0 og fyldes op undervejs i funktionen setSensarray
  21:.\Sensor.c    **** 
  22:.\Sensor.c    **** void setupI2C()
  23:.\Sensor.c    **** {
  33              		.loc 1 23 0
  34              		.cfi_startproc
ARM GAS  C:\Users\Jeppe\AppData\Local\Temp\ccKDN4Hq.s 			page 2


  35 0000 80B5     		push	{r7, lr}
  36              	.LCFI0:
  37              		.cfi_def_cfa_offset 8
  38              		.cfi_offset 7, -8
  39              		.cfi_offset 14, -4
  40 0002 00AF     		add	r7, sp, #0
  41              	.LCFI1:
  42              		.cfi_def_cfa_register 7
  24:.\Sensor.c    **** 	I2C_1_Start();
  43              		.loc 1 24 0
  44 0004 FFF7FEFF 		bl	I2C_1_Start
  25:.\Sensor.c    ****     I2C_1_I2CMasterClearStatus();
  45              		.loc 1 25 0
  46 0008 FFF7FEFF 		bl	I2C_1_I2CMasterClearStatus
  26:.\Sensor.c    **** }	
  47              		.loc 1 26 0
  48 000c BD46     		mov	sp, r7
  49              		@ sp needed for prologue
  50 000e 80BD     		pop	{r7, pc}
  51              		.cfi_endproc
  52              	.LFE33:
  53              		.size	setupI2C, .-setupI2C
  54              		.section	.text.setSensArray,"ax",%progbits
  55              		.align	2
  56              		.global	setSensArray
  57              		.code	16
  58              		.thumb_func
  59              		.type	setSensArray, %function
  60              	setSensArray:
  61              	.LFB34:
  27:.\Sensor.c    **** 
  28:.\Sensor.c    **** 
  29:.\Sensor.c    **** 
  30:.\Sensor.c    **** void setSensArray(int deviceAddress, int registerToRead, int dataTarget)
  31:.\Sensor.c    **** {
  62              		.loc 1 31 0
  63              		.cfi_startproc
  64 0000 80B5     		push	{r7, lr}
  65              	.LCFI2:
  66              		.cfi_def_cfa_offset 8
  67              		.cfi_offset 7, -8
  68              		.cfi_offset 14, -4
  69 0002 84B0     		sub	sp, sp, #16
  70              	.LCFI3:
  71              		.cfi_def_cfa_offset 24
  72 0004 00AF     		add	r7, sp, #0
  73              	.LCFI4:
  74              		.cfi_def_cfa_register 7
  75 0006 F860     		str	r0, [r7, #12]
  76 0008 B960     		str	r1, [r7, #8]
  77 000a 7A60     		str	r2, [r7, #4]
  32:.\Sensor.c    **** 	sensArray[numOfRegToRead][0]=deviceAddress;		//set device address
  78              		.loc 1 32 0
  79 000c 154B     		ldr	r3, .L3
  80 000e 1B78     		ldrb	r3, [r3]
  81 0010 1A1C     		mov	r2, r3
  82 0012 1549     		ldr	r1, .L3+4
ARM GAS  C:\Users\Jeppe\AppData\Local\Temp\ccKDN4Hq.s 			page 3


  83 0014 131C     		mov	r3, r2
  84 0016 5B00     		lsl	r3, r3, #1
  85 0018 9B18     		add	r3, r3, r2
  86 001a 9B00     		lsl	r3, r3, #2
  87 001c FA68     		ldr	r2, [r7, #12]
  88 001e 5A50     		str	r2, [r3, r1]
  33:.\Sensor.c    **** 	sensArray[numOfRegToRead][1]=registerToRead;	//set register for future read
  89              		.loc 1 33 0
  90 0020 104B     		ldr	r3, .L3
  91 0022 1B78     		ldrb	r3, [r3]
  92 0024 1A1C     		mov	r2, r3
  93 0026 1049     		ldr	r1, .L3+4
  94 0028 131C     		mov	r3, r2
  95 002a 5B00     		lsl	r3, r3, #1
  96 002c 9B18     		add	r3, r3, r2
  97 002e 9B00     		lsl	r3, r3, #2
  98 0030 CB18     		add	r3, r1, r3
  99 0032 0433     		add	r3, r3, #4
 100 0034 BA68     		ldr	r2, [r7, #8]
 101 0036 1A60     		str	r2, [r3]
  34:.\Sensor.c    **** 	sensArray[numOfRegToRead][2]=dataTarget;		//set where to save read data
 102              		.loc 1 34 0
 103 0038 0A4B     		ldr	r3, .L3
 104 003a 1B78     		ldrb	r3, [r3]
 105 003c 1A1C     		mov	r2, r3
 106 003e 0A49     		ldr	r1, .L3+4
 107 0040 131C     		mov	r3, r2
 108 0042 5B00     		lsl	r3, r3, #1
 109 0044 9B18     		add	r3, r3, r2
 110 0046 9B00     		lsl	r3, r3, #2
 111 0048 CB18     		add	r3, r1, r3
 112 004a 0833     		add	r3, r3, #8
 113 004c 7A68     		ldr	r2, [r7, #4]
 114 004e 1A60     		str	r2, [r3]
  35:.\Sensor.c    **** 	++numOfRegToRead;								//increment current number of places in array that are set
 115              		.loc 1 35 0
 116 0050 044B     		ldr	r3, .L3
 117 0052 1B78     		ldrb	r3, [r3]
 118 0054 0133     		add	r3, r3, #1
 119 0056 DAB2     		uxtb	r2, r3
 120 0058 024B     		ldr	r3, .L3
 121 005a 1A70     		strb	r2, [r3]
  36:.\Sensor.c    **** 	
  37:.\Sensor.c    **** 	//Skriv noget fejlsikring hvis numOfRegToRead kommer over 96, skal der sættes den pin høj på PS
  38:.\Sensor.c    **** }
 122              		.loc 1 38 0
 123 005c BD46     		mov	sp, r7
 124 005e 04B0     		add	sp, sp, #16
 125              		@ sp needed for prologue
 126 0060 80BD     		pop	{r7, pc}
 127              	.L4:
 128 0062 C046     		.align	2
 129              	.L3:
 130 0064 00000000 		.word	numOfRegToRead
 131 0068 00000000 		.word	sensArray
 132              		.cfi_endproc
 133              	.LFE34:
ARM GAS  C:\Users\Jeppe\AppData\Local\Temp\ccKDN4Hq.s 			page 4


 134              		.size	setSensArray, .-setSensArray
 135              		.section	.text.readAllSensors,"ax",%progbits
 136              		.align	2
 137              		.global	readAllSensors
 138              		.code	16
 139              		.thumb_func
 140              		.type	readAllSensors, %function
 141              	readAllSensors:
 142              	.LFB35:
  39:.\Sensor.c    **** 
  40:.\Sensor.c    **** 
  41:.\Sensor.c    **** 
  42:.\Sensor.c    **** void readAllSensors()
  43:.\Sensor.c    **** {
 143              		.loc 1 43 0
 144              		.cfi_startproc
 145 0000 80B5     		push	{r7, lr}
 146              	.LCFI5:
 147              		.cfi_def_cfa_offset 8
 148              		.cfi_offset 7, -8
 149              		.cfi_offset 14, -4
 150 0002 82B0     		sub	sp, sp, #8
 151              	.LCFI6:
 152              		.cfi_def_cfa_offset 16
 153 0004 00AF     		add	r7, sp, #0
 154              	.LCFI7:
 155              		.cfi_def_cfa_register 7
  44:.\Sensor.c    ****     int numOfReg; 
  45:.\Sensor.c    **** 	for (numOfReg = 0; numOfReg < numOfRegToRead; numOfReg++)
 156              		.loc 1 45 0
 157 0006 0023     		mov	r3, #0
 158 0008 7B60     		str	r3, [r7, #4]
 159 000a 06E0     		b	.L6
 160              	.L7:
  46:.\Sensor.c    **** 	{
  47:.\Sensor.c    **** 		readI2C(numOfReg);
 161              		.loc 1 47 0 discriminator 2
 162 000c 7B68     		ldr	r3, [r7, #4]
 163 000e 181C     		mov	r0, r3
 164 0010 FFF7FEFF 		bl	readI2C
  45:.\Sensor.c    **** 	for (numOfReg = 0; numOfReg < numOfRegToRead; numOfReg++)
 165              		.loc 1 45 0 discriminator 2
 166 0014 7B68     		ldr	r3, [r7, #4]
 167 0016 0133     		add	r3, r3, #1
 168 0018 7B60     		str	r3, [r7, #4]
 169              	.L6:
  45:.\Sensor.c    **** 	for (numOfReg = 0; numOfReg < numOfRegToRead; numOfReg++)
 170              		.loc 1 45 0 is_stmt 0 discriminator 1
 171 001a 044B     		ldr	r3, .L8
 172 001c 1B78     		ldrb	r3, [r3]
 173 001e 1A1C     		mov	r2, r3
 174 0020 7B68     		ldr	r3, [r7, #4]
 175 0022 9A42     		cmp	r2, r3
 176 0024 F2DC     		bgt	.L7
  48:.\Sensor.c    **** 	}
  49:.\Sensor.c    **** 	
  50:.\Sensor.c    **** }
ARM GAS  C:\Users\Jeppe\AppData\Local\Temp\ccKDN4Hq.s 			page 5


 177              		.loc 1 50 0 is_stmt 1
 178 0026 BD46     		mov	sp, r7
 179 0028 02B0     		add	sp, sp, #8
 180              		@ sp needed for prologue
 181 002a 80BD     		pop	{r7, pc}
 182              	.L9:
 183              		.align	2
 184              	.L8:
 185 002c 00000000 		.word	numOfRegToRead
 186              		.cfi_endproc
 187              	.LFE35:
 188              		.size	readAllSensors, .-readAllSensors
 189              		.section	.text.convSensData,"ax",%progbits
 190              		.align	2
 191              		.global	convSensData
 192              		.code	16
 193              		.thumb_func
 194              		.type	convSensData, %function
 195              	convSensData:
 196              	.LFB36:
  51:.\Sensor.c    **** 
  52:.\Sensor.c    **** void convSensData()
  53:.\Sensor.c    **** {
 197              		.loc 1 53 0
 198              		.cfi_startproc
 199 0000 80B5     		push	{r7, lr}
 200              	.LCFI8:
 201              		.cfi_def_cfa_offset 8
 202              		.cfi_offset 7, -8
 203              		.cfi_offset 14, -4
 204 0002 84B0     		sub	sp, sp, #16
 205              	.LCFI9:
 206              		.cfi_def_cfa_offset 24
 207 0004 00AF     		add	r7, sp, #0
 208              	.LCFI10:
 209              		.cfi_def_cfa_register 7
  54:.\Sensor.c    ****     //ADXL345
  55:.\Sensor.c    ****     int16 x, y, z; // Da det er to 8 bit registre som skal lægges sammen
  56:.\Sensor.c    ****     unsigned char x1, y1, z1; 
  57:.\Sensor.c    ****     //Samler most significant og least significant for X
  58:.\Sensor.c    ****     x = sensArray[1][2]<< 8; 
 210              		.loc 1 58 0
 211 0006 364B     		ldr	r3, .L14
 212 0008 5B69     		ldr	r3, [r3, #20]
 213 000a 1A02     		lsl	r2, r3, #8
 214 000c 3B1C     		mov	r3, r7
 215 000e 0E33     		add	r3, r3, #14
 216 0010 1A80     		strh	r2, [r3]
  59:.\Sensor.c    ****     x+= sensArray[0][2];
 217              		.loc 1 59 0
 218 0012 334B     		ldr	r3, .L14
 219 0014 9B68     		ldr	r3, [r3, #8]
 220 0016 9AB2     		uxth	r2, r3
 221 0018 3B1C     		mov	r3, r7
 222 001a 0E33     		add	r3, r3, #14
 223 001c 1B88     		ldrh	r3, [r3]
 224 001e D318     		add	r3, r2, r3
ARM GAS  C:\Users\Jeppe\AppData\Local\Temp\ccKDN4Hq.s 			page 6


 225 0020 9AB2     		uxth	r2, r3
 226 0022 3B1C     		mov	r3, r7
 227 0024 0E33     		add	r3, r3, #14
 228 0026 1A80     		strh	r2, [r3]
  60:.\Sensor.c    ****     
  61:.\Sensor.c    ****     //Samler most significant og least significant for Y
  62:.\Sensor.c    ****     y = sensArray[3][2]<< 8; 
 229              		.loc 1 62 0
 230 0028 2D4B     		ldr	r3, .L14
 231 002a DB6A     		ldr	r3, [r3, #44]
 232 002c 1A02     		lsl	r2, r3, #8
 233 002e 3B1C     		mov	r3, r7
 234 0030 0C33     		add	r3, r3, #12
 235 0032 1A80     		strh	r2, [r3]
  63:.\Sensor.c    ****     y+= sensArray[2][2];
 236              		.loc 1 63 0
 237 0034 2A4B     		ldr	r3, .L14
 238 0036 1B6A     		ldr	r3, [r3, #32]
 239 0038 9AB2     		uxth	r2, r3
 240 003a 3B1C     		mov	r3, r7
 241 003c 0C33     		add	r3, r3, #12
 242 003e 1B88     		ldrh	r3, [r3]
 243 0040 D318     		add	r3, r2, r3
 244 0042 9AB2     		uxth	r2, r3
 245 0044 3B1C     		mov	r3, r7
 246 0046 0C33     		add	r3, r3, #12
 247 0048 1A80     		strh	r2, [r3]
  64:.\Sensor.c    ****     
  65:.\Sensor.c    ****     //Samler most significant og least significant for Z
  66:.\Sensor.c    ****     z = sensArray[5][2]<< 8; 
 248              		.loc 1 66 0
 249 004a 254B     		ldr	r3, .L14
 250 004c 5B6C     		ldr	r3, [r3, #68]
 251 004e 1A02     		lsl	r2, r3, #8
 252 0050 3B1C     		mov	r3, r7
 253 0052 0A33     		add	r3, r3, #10
 254 0054 1A80     		strh	r2, [r3]
  67:.\Sensor.c    ****     z+= sensArray[4][2];
 255              		.loc 1 67 0
 256 0056 224B     		ldr	r3, .L14
 257 0058 9B6B     		ldr	r3, [r3, #56]
 258 005a 9AB2     		uxth	r2, r3
 259 005c 3B1C     		mov	r3, r7
 260 005e 0A33     		add	r3, r3, #10
 261 0060 1B88     		ldrh	r3, [r3]
 262 0062 D318     		add	r3, r2, r3
 263 0064 9AB2     		uxth	r2, r3
 264 0066 3B1C     		mov	r3, r7
 265 0068 0A33     		add	r3, r3, #10
 266 006a 1A80     		strh	r2, [r3]
  68:.\Sensor.c    ****     
  69:.\Sensor.c    ****    
  70:.\Sensor.c    ****     
  71:.\Sensor.c    ****    
  72:.\Sensor.c    ****     /*char ADXL345_data[32];
  73:.\Sensor.c    ****     sprintf(ADXL345_data, "\n\rx is: %d, y is: %d, z is: %d\n\r", x, y, z);
  74:.\Sensor.c    ****     UART_1_UartPutString(ADXL345_data); */
ARM GAS  C:\Users\Jeppe\AppData\Local\Temp\ccKDN4Hq.s 			page 7


  75:.\Sensor.c    ****     
  76:.\Sensor.c    ****     //conversion from int16 to uint8 which is the scale midi can receive
  77:.\Sensor.c    ****     x1 = (x+512)/8; 
 267              		.loc 1 77 0
 268 006c 3B1C     		mov	r3, r7
 269 006e 0E33     		add	r3, r3, #14
 270 0070 0022     		mov	r2, #0
 271 0072 9B5E     		ldrsh	r3, [r3, r2]
 272 0074 8022     		mov	r2, #128
 273 0076 9200     		lsl	r2, r2, #2
 274 0078 9B18     		add	r3, r3, r2
 275 007a 002B     		cmp	r3, #0
 276 007c 00DA     		bge	.L11
 277 007e 0733     		add	r3, r3, #7
 278              	.L11:
 279 0080 DB10     		asr	r3, r3, #3
 280 0082 1A1C     		mov	r2, r3
 281 0084 3B1C     		mov	r3, r7
 282 0086 0933     		add	r3, r3, #9
 283 0088 1A70     		strb	r2, [r3]
  78:.\Sensor.c    ****     y1 = (y+512)/8;
 284              		.loc 1 78 0
 285 008a 3B1C     		mov	r3, r7
 286 008c 0C33     		add	r3, r3, #12
 287 008e 0022     		mov	r2, #0
 288 0090 9B5E     		ldrsh	r3, [r3, r2]
 289 0092 8022     		mov	r2, #128
 290 0094 9200     		lsl	r2, r2, #2
 291 0096 9B18     		add	r3, r3, r2
 292 0098 002B     		cmp	r3, #0
 293 009a 00DA     		bge	.L12
 294 009c 0733     		add	r3, r3, #7
 295              	.L12:
 296 009e DB10     		asr	r3, r3, #3
 297 00a0 1A1C     		mov	r2, r3
 298 00a2 3B1C     		mov	r3, r7
 299 00a4 0833     		add	r3, r3, #8
 300 00a6 1A70     		strb	r2, [r3]
  79:.\Sensor.c    ****     z1 = (z+512)/8;
 301              		.loc 1 79 0
 302 00a8 3B1C     		mov	r3, r7
 303 00aa 0A33     		add	r3, r3, #10
 304 00ac 0022     		mov	r2, #0
 305 00ae 9B5E     		ldrsh	r3, [r3, r2]
 306 00b0 8022     		mov	r2, #128
 307 00b2 9200     		lsl	r2, r2, #2
 308 00b4 9B18     		add	r3, r3, r2
 309 00b6 002B     		cmp	r3, #0
 310 00b8 00DA     		bge	.L13
 311 00ba 0733     		add	r3, r3, #7
 312              	.L13:
 313 00bc DB10     		asr	r3, r3, #3
 314 00be 1A1C     		mov	r2, r3
 315 00c0 FB1D     		add	r3, r7, #7
 316 00c2 1A70     		strb	r2, [r3]
  80:.\Sensor.c    ****     
  81:.\Sensor.c    ****     setdataArray(ACC1_ID, x1, y1, z1);
ARM GAS  C:\Users\Jeppe\AppData\Local\Temp\ccKDN4Hq.s 			page 8


 317              		.loc 1 81 0
 318 00c4 3B1C     		mov	r3, r7
 319 00c6 0933     		add	r3, r3, #9
 320 00c8 1978     		ldrb	r1, [r3]
 321 00ca 3B1C     		mov	r3, r7
 322 00cc 0833     		add	r3, r3, #8
 323 00ce 1A78     		ldrb	r2, [r3]
 324 00d0 FB1D     		add	r3, r7, #7
 325 00d2 1B78     		ldrb	r3, [r3]
 326 00d4 0020     		mov	r0, #0
 327 00d6 FFF7FEFF 		bl	setdataArray
  82:.\Sensor.c    ****     
  83:.\Sensor.c    ****         /*
  84:.\Sensor.c    ****         // Skal slettes
  85:.\Sensor.c    ****         // Tester med UART at array'et bliver fyldt rigtig 
  86:.\Sensor.c    ****         UART_1_UartPutString("Sensor Array is:\n\r"); 
  87:.\Sensor.c    ****         int i;
  88:.\Sensor.c    ****         char arrayString[20];
  89:.\Sensor.c    ****         for(i = 0; i < numOfRegToRead; i++)
  90:.\Sensor.c    ****         {
  91:.\Sensor.c    ****             sprintf(arrayString, "%d: %d, %d, %d\n\r", i, sensArray[i][0], sensArray[i][1], sensArr
  92:.\Sensor.c    ****             UART_1_UartPutString(arrayString); 
  93:.\Sensor.c    ****         }
  94:.\Sensor.c    ****         */
  95:.\Sensor.c    ****     
  96:.\Sensor.c    ****     /*char ADXL345_data2[32];
  97:.\Sensor.c    ****     sprintf(ADXL345_data2, "\n\rx is: %d, y is: %d, z is: %d\n\r", x1, y1, z1);
  98:.\Sensor.c    ****     UART_1_UartPutString(ADXL345_data2); */
  99:.\Sensor.c    **** }
 328              		.loc 1 99 0
 329 00da BD46     		mov	sp, r7
 330 00dc 04B0     		add	sp, sp, #16
 331              		@ sp needed for prologue
 332 00de 80BD     		pop	{r7, pc}
 333              	.L15:
 334              		.align	2
 335              	.L14:
 336 00e0 00000000 		.word	sensArray
 337              		.cfi_endproc
 338              	.LFE36:
 339              		.size	convSensData, .-convSensData
 340              		.section	.text.readI2C,"ax",%progbits
 341              		.align	2
 342              		.global	readI2C
 343              		.code	16
 344              		.thumb_func
 345              		.type	readI2C, %function
 346              	readI2C:
 347              	.LFB37:
 100:.\Sensor.c    **** 
 101:.\Sensor.c    **** 
 102:.\Sensor.c    **** 
 103:.\Sensor.c    **** void readI2C(int numOfReg)
 104:.\Sensor.c    **** {
 348              		.loc 1 104 0
 349              		.cfi_startproc
 350 0000 80B5     		push	{r7, lr}
ARM GAS  C:\Users\Jeppe\AppData\Local\Temp\ccKDN4Hq.s 			page 9


 351              	.LCFI11:
 352              		.cfi_def_cfa_offset 8
 353              		.cfi_offset 7, -8
 354              		.cfi_offset 14, -4
 355 0002 84B0     		sub	sp, sp, #16
 356              	.LCFI12:
 357              		.cfi_def_cfa_offset 24
 358 0004 00AF     		add	r7, sp, #0
 359              	.LCFI13:
 360              		.cfi_def_cfa_register 7
 361 0006 7860     		str	r0, [r7, #4]
 105:.\Sensor.c    ****    	uint8 rawData; 
 106:.\Sensor.c    ****     
 107:.\Sensor.c    **** 	if (I2C_1_I2CMasterSendStart(sensArray[numOfReg][0], I2C_1_I2C_WRITE_XFER_MODE) == I2C_1_I2C_MSTR_
 362              		.loc 1 107 0
 363 0008 2149     		ldr	r1, .L18
 364 000a 7A68     		ldr	r2, [r7, #4]
 365 000c 131C     		mov	r3, r2
 366 000e 5B00     		lsl	r3, r3, #1
 367 0010 9B18     		add	r3, r3, r2
 368 0012 9B00     		lsl	r3, r3, #2
 369 0014 5B58     		ldr	r3, [r3, r1]
 370 0016 181C     		mov	r0, r3
 371 0018 0021     		mov	r1, #0
 372 001a FFF7FEFF 		bl	I2C_1_I2CMasterSendStart
 373 001e 031C     		mov	r3, r0
 374 0020 002B     		cmp	r3, #0
 375 0022 31D1     		bne	.L16
 108:.\Sensor.c    ****     { 
 109:.\Sensor.c    ****         if(I2C_1_I2CMasterWriteByte(sensArray[numOfReg][1]) == I2C_1_I2C_MSTR_NO_ERROR)
 376              		.loc 1 109 0
 377 0024 1A49     		ldr	r1, .L18
 378 0026 7A68     		ldr	r2, [r7, #4]
 379 0028 131C     		mov	r3, r2
 380 002a 5B00     		lsl	r3, r3, #1
 381 002c 9B18     		add	r3, r3, r2
 382 002e 9B00     		lsl	r3, r3, #2
 383 0030 CB18     		add	r3, r1, r3
 384 0032 0433     		add	r3, r3, #4
 385 0034 1B68     		ldr	r3, [r3]
 386 0036 181C     		mov	r0, r3
 387 0038 FFF7FEFF 		bl	I2C_1_I2CMasterWriteByte
 388 003c 031C     		mov	r3, r0
 389 003e 002B     		cmp	r3, #0
 390 0040 22D1     		bne	.L16
 110:.\Sensor.c    **** 		{
 111:.\Sensor.c    ****             if(I2C_1_I2CMasterSendRestart(sensArray[numOfReg][0], I2C_1_I2C_READ_XFER_MODE) == I2C_
 391              		.loc 1 111 0
 392 0042 1349     		ldr	r1, .L18
 393 0044 7A68     		ldr	r2, [r7, #4]
 394 0046 131C     		mov	r3, r2
 395 0048 5B00     		lsl	r3, r3, #1
 396 004a 9B18     		add	r3, r3, r2
 397 004c 9B00     		lsl	r3, r3, #2
 398 004e 5B58     		ldr	r3, [r3, r1]
 399 0050 181C     		mov	r0, r3
 400 0052 0121     		mov	r1, #1
ARM GAS  C:\Users\Jeppe\AppData\Local\Temp\ccKDN4Hq.s 			page 10


 401 0054 FFF7FEFF 		bl	I2C_1_I2CMasterSendRestart
 402 0058 031C     		mov	r3, r0
 403 005a 002B     		cmp	r3, #0
 404 005c 14D1     		bne	.L16
 112:.\Sensor.c    **** 			{
 113:.\Sensor.c    ****                 rawData = I2C_1_I2CMasterReadByte(I2C_1_I2C_NAK_DATA);
 405              		.loc 1 113 0
 406 005e 0120     		mov	r0, #1
 407 0060 FFF7FEFF 		bl	I2C_1_I2CMasterReadByte
 408 0064 021C     		mov	r2, r0
 409 0066 3B1C     		mov	r3, r7
 410 0068 0F33     		add	r3, r3, #15
 411 006a 1A70     		strb	r2, [r3]
 114:.\Sensor.c    ****                 I2C_1_I2CMasterSendStop();
 412              		.loc 1 114 0
 413 006c FFF7FEFF 		bl	I2C_1_I2CMasterSendStop
 115:.\Sensor.c    **** 				
 116:.\Sensor.c    **** 				sensArray[numOfReg][2] = rawData; // gemmer rawData på den tilhørende plads i sensArray. 
 414              		.loc 1 116 0
 415 0070 3B1C     		mov	r3, r7
 416 0072 0F33     		add	r3, r3, #15
 417 0074 1978     		ldrb	r1, [r3]
 418 0076 0648     		ldr	r0, .L18
 419 0078 7A68     		ldr	r2, [r7, #4]
 420 007a 131C     		mov	r3, r2
 421 007c 5B00     		lsl	r3, r3, #1
 422 007e 9B18     		add	r3, r3, r2
 423 0080 9B00     		lsl	r3, r3, #2
 424 0082 C318     		add	r3, r0, r3
 425 0084 0833     		add	r3, r3, #8
 426 0086 1960     		str	r1, [r3]
 427              	.L16:
 117:.\Sensor.c    **** 			}
 118:.\Sensor.c    **** 		}
 119:.\Sensor.c    **** 	}
 120:.\Sensor.c    **** 				
 121:.\Sensor.c    **** 	
 122:.\Sensor.c    **** }
 428              		.loc 1 122 0
 429 0088 BD46     		mov	sp, r7
 430 008a 04B0     		add	sp, sp, #16
 431              		@ sp needed for prologue
 432 008c 80BD     		pop	{r7, pc}
 433              	.L19:
 434 008e C046     		.align	2
 435              	.L18:
 436 0090 00000000 		.word	sensArray
 437              		.cfi_endproc
 438              	.LFE37:
 439              		.size	readI2C, .-readI2C
 440              		.section	.text.handleI2CError,"ax",%progbits
 441              		.align	2
 442              		.global	handleI2CError
 443              		.code	16
 444              		.thumb_func
 445              		.type	handleI2CError, %function
 446              	handleI2CError:
ARM GAS  C:\Users\Jeppe\AppData\Local\Temp\ccKDN4Hq.s 			page 11


 447              	.LFB38:
 123:.\Sensor.c    **** 
 124:.\Sensor.c    **** 
 125:.\Sensor.c    **** void handleI2CError()
 126:.\Sensor.c    **** {
 448              		.loc 1 126 0
 449              		.cfi_startproc
 450 0000 80B5     		push	{r7, lr}
 451              	.LCFI14:
 452              		.cfi_def_cfa_offset 8
 453              		.cfi_offset 7, -8
 454              		.cfi_offset 14, -4
 455 0002 00AF     		add	r7, sp, #0
 456              	.LCFI15:
 457              		.cfi_def_cfa_register 7
 127:.\Sensor.c    ****     I2C_1_I2CMasterSendStop();	 
 458              		.loc 1 127 0
 459 0004 FFF7FEFF 		bl	I2C_1_I2CMasterSendStop
 128:.\Sensor.c    **** }
 460              		.loc 1 128 0
 461 0008 BD46     		mov	sp, r7
 462              		@ sp needed for prologue
 463 000a 80BD     		pop	{r7, pc}
 464              		.cfi_endproc
 465              	.LFE38:
 466              		.size	handleI2CError, .-handleI2CError
 467              		.text
 468              	.Letext0:
 469              		.file 2 "c:\\program files (x86)\\cypress\\psoc creator\\3.0\\psoc creator\\import\\gnu_cs\\arm\\4
 470              		.file 3 "./Generated_Source/PSoC4/cytypes.h"