ARM GAS  C:\Users\Jeppe\AppData\Local\Temp\ccw1UznF.s 			page 1


   1              		.cpu cortex-m0
   2              		.fpu softvfp
   3              		.eabi_attribute 20, 1
   4              		.eabi_attribute 21, 1
   5              		.eabi_attribute 23, 3
   6              		.eabi_attribute 24, 1
   7              		.eabi_attribute 25, 1
   8              		.eabi_attribute 26, 1
   9              		.eabi_attribute 30, 6
  10              		.eabi_attribute 34, 0
  11              		.eabi_attribute 18, 4
  12              		.code	16
  13              		.file	"SerialUnit.c"
  14              		.text
  15              	.Ltext0:
  16              		.cfi_sections	.debug_frame
  17              		.comm	dataArray,16,4
  18              		.section	.text.initUART,"ax",%progbits
  19              		.align	2
  20              		.global	initUART
  21              		.code	16
  22              		.thumb_func
  23              		.type	initUART, %function
  24              	initUART:
  25              	.LFB33:
  26              		.file 1 ".\\SerialUnit.c"
   1:.\SerialUnit.c **** /* ========================================
   2:.\SerialUnit.c ****  *
   3:.\SerialUnit.c ****  * Copyright YOUR COMPANY, THE YEAR
   4:.\SerialUnit.c ****  * All Rights Reserved
   5:.\SerialUnit.c ****  * UNPUBLISHED, LICENSED SOFTWARE.
   6:.\SerialUnit.c ****  *
   7:.\SerialUnit.c ****  * CONFIDENTIAL AND PROPRIETARY INFORMATION
   8:.\SerialUnit.c ****  * WHICH IS THE PROPERTY OF your company.
   9:.\SerialUnit.c ****  *
  10:.\SerialUnit.c ****  * ========================================
  11:.\SerialUnit.c **** */
  12:.\SerialUnit.c **** #include "SerialUnit.h"
  13:.\SerialUnit.c **** #include "Sensor.h"
  14:.\SerialUnit.c **** 
  15:.\SerialUnit.c **** 
  16:.\SerialUnit.c **** // Klasse-lokalt array
  17:.\SerialUnit.c **** char dataArray[MAXSENSDATA];     // Array with id-number and data to send via BT
  18:.\SerialUnit.c **** 
  19:.\SerialUnit.c **** void initUART()
  20:.\SerialUnit.c **** {
  27              		.loc 1 20 0
  28              		.cfi_startproc
  29 0000 80B5     		push	{r7, lr}
  30              	.LCFI0:
  31              		.cfi_def_cfa_offset 8
  32              		.cfi_offset 7, -8
  33              		.cfi_offset 14, -4
  34 0002 00AF     		add	r7, sp, #0
  35              	.LCFI1:
  36              		.cfi_def_cfa_register 7
  21:.\SerialUnit.c ****     // Enable og initier UART komponenten
ARM GAS  C:\Users\Jeppe\AppData\Local\Temp\ccw1UznF.s 			page 2


  22:.\SerialUnit.c ****     UART_1_Start();
  37              		.loc 1 22 0
  38 0004 FFF7FEFF 		bl	UART_1_Start
  23:.\SerialUnit.c **** }
  39              		.loc 1 23 0
  40 0008 BD46     		mov	sp, r7
  41              		@ sp needed for prologue
  42 000a 80BD     		pop	{r7, pc}
  43              		.cfi_endproc
  44              	.LFE33:
  45              		.size	initUART, .-initUART
  46              		.section	.text.setdataArray,"ax",%progbits
  47              		.align	2
  48              		.global	setdataArray
  49              		.code	16
  50              		.thumb_func
  51              		.type	setdataArray, %function
  52              	setdataArray:
  53              	.LFB34:
  24:.\SerialUnit.c **** 
  25:.\SerialUnit.c **** 
  26:.\SerialUnit.c **** 
  27:.\SerialUnit.c **** void setdataArray(int ID, int x_data, int y_data, int z_data)
  28:.\SerialUnit.c **** {
  54              		.loc 1 28 0
  55              		.cfi_startproc
  56 0000 80B5     		push	{r7, lr}
  57              	.LCFI2:
  58              		.cfi_def_cfa_offset 8
  59              		.cfi_offset 7, -8
  60              		.cfi_offset 14, -4
  61 0002 86B0     		sub	sp, sp, #24
  62              	.LCFI3:
  63              		.cfi_def_cfa_offset 32
  64 0004 00AF     		add	r7, sp, #0
  65              	.LCFI4:
  66              		.cfi_def_cfa_register 7
  67 0006 F860     		str	r0, [r7, #12]
  68 0008 B960     		str	r1, [r7, #8]
  69 000a 7A60     		str	r2, [r7, #4]
  70 000c 3B60     		str	r3, [r7]
  29:.\SerialUnit.c ****     // // Klasse-lokale dataarray til ID, x_data, y_data, z_data
  30:.\SerialUnit.c ****     dataArray[0] = ID+1; 
  71              		.loc 1 30 0
  72 000e FB68     		ldr	r3, [r7, #12]
  73 0010 DBB2     		uxtb	r3, r3
  74 0012 0133     		add	r3, r3, #1
  75 0014 DAB2     		uxtb	r2, r3
  76 0016 124B     		ldr	r3, .L5
  77 0018 1A70     		strb	r2, [r3]
  31:.\SerialUnit.c ****     dataArray[1] = x_data+1;
  78              		.loc 1 31 0
  79 001a BB68     		ldr	r3, [r7, #8]
  80 001c DBB2     		uxtb	r3, r3
  81 001e 0133     		add	r3, r3, #1
  82 0020 DAB2     		uxtb	r2, r3
  83 0022 0F4B     		ldr	r3, .L5
ARM GAS  C:\Users\Jeppe\AppData\Local\Temp\ccw1UznF.s 			page 3


  84 0024 5A70     		strb	r2, [r3, #1]
  32:.\SerialUnit.c ****     dataArray[2] = y_data+1;
  85              		.loc 1 32 0
  86 0026 7B68     		ldr	r3, [r7, #4]
  87 0028 DBB2     		uxtb	r3, r3
  88 002a 0133     		add	r3, r3, #1
  89 002c DAB2     		uxtb	r2, r3
  90 002e 0C4B     		ldr	r3, .L5
  91 0030 9A70     		strb	r2, [r3, #2]
  33:.\SerialUnit.c ****     dataArray[3] = z_data+1;
  92              		.loc 1 33 0
  93 0032 3B68     		ldr	r3, [r7]
  94 0034 DBB2     		uxtb	r3, r3
  95 0036 0133     		add	r3, r3, #1
  96 0038 DAB2     		uxtb	r2, r3
  97 003a 094B     		ldr	r3, .L5
  98 003c DA70     		strb	r2, [r3, #3]
  34:.\SerialUnit.c ****     
  35:.\SerialUnit.c ****     //Sætter de resterende pladser i array'et til 1.
  36:.\SerialUnit.c ****     int i;
  37:.\SerialUnit.c ****     for(i = 4; i<MAXSENSDATA; i++)  
  99              		.loc 1 37 0
 100 003e 0423     		mov	r3, #4
 101 0040 7B61     		str	r3, [r7, #20]
 102 0042 07E0     		b	.L3
 103              	.L4:
  38:.\SerialUnit.c ****     {
  39:.\SerialUnit.c ****         dataArray[i] = 1; 
 104              		.loc 1 39 0 discriminator 2
 105 0044 064A     		ldr	r2, .L5
 106 0046 7B69     		ldr	r3, [r7, #20]
 107 0048 D318     		add	r3, r2, r3
 108 004a 0122     		mov	r2, #1
 109 004c 1A70     		strb	r2, [r3]
  37:.\SerialUnit.c ****     for(i = 4; i<MAXSENSDATA; i++)  
 110              		.loc 1 37 0 discriminator 2
 111 004e 7B69     		ldr	r3, [r7, #20]
 112 0050 0133     		add	r3, r3, #1
 113 0052 7B61     		str	r3, [r7, #20]
 114              	.L3:
  37:.\SerialUnit.c ****     for(i = 4; i<MAXSENSDATA; i++)  
 115              		.loc 1 37 0 is_stmt 0 discriminator 1
 116 0054 7B69     		ldr	r3, [r7, #20]
 117 0056 0F2B     		cmp	r3, #15
 118 0058 F4DD     		ble	.L4
  40:.\SerialUnit.c ****     }
  41:.\SerialUnit.c ****     
  42:.\SerialUnit.c **** }
 119              		.loc 1 42 0 is_stmt 1
 120 005a BD46     		mov	sp, r7
 121 005c 06B0     		add	sp, sp, #24
 122              		@ sp needed for prologue
 123 005e 80BD     		pop	{r7, pc}
 124              	.L6:
 125              		.align	2
 126              	.L5:
 127 0060 00000000 		.word	dataArray
ARM GAS  C:\Users\Jeppe\AppData\Local\Temp\ccw1UznF.s 			page 4


 128              		.cfi_endproc
 129              	.LFE34:
 130              		.size	setdataArray, .-setdataArray
 131              		.section	.text.sendDataArray,"ax",%progbits
 132              		.align	2
 133              		.global	sendDataArray
 134              		.code	16
 135              		.thumb_func
 136              		.type	sendDataArray, %function
 137              	sendDataArray:
 138              	.LFB35:
  43:.\SerialUnit.c **** 
  44:.\SerialUnit.c **** 
  45:.\SerialUnit.c **** void sendDataArray()
  46:.\SerialUnit.c **** {
 139              		.loc 1 46 0
 140              		.cfi_startproc
 141 0000 80B5     		push	{r7, lr}
 142              	.LCFI5:
 143              		.cfi_def_cfa_offset 8
 144              		.cfi_offset 7, -8
 145              		.cfi_offset 14, -4
 146 0002 8AB0     		sub	sp, sp, #40
 147              	.LCFI6:
 148              		.cfi_def_cfa_offset 48
 149 0004 00AF     		add	r7, sp, #0
 150              	.LCFI7:
 151              		.cfi_def_cfa_register 7
  47:.\SerialUnit.c ****     // Opret et array med seks pladser pr sensor 
  48:.\SerialUnit.c ****     char accelArray[6];
  49:.\SerialUnit.c ****     char gyroArray[6];
  50:.\SerialUnit.c ****     char proxArray[6];
  51:.\SerialUnit.c ****     char flexArray[6];
  52:.\SerialUnit.c ****     
  53:.\SerialUnit.c ****     // Sætter accelerometer array.
  54:.\SerialUnit.c ****     accelArray[0] = START_SENSDATA;
 152              		.loc 1 54 0
 153 0006 3B1C     		mov	r3, r7
 154 0008 1C33     		add	r3, r3, #28
 155 000a 0F22     		mov	r2, #15
 156 000c 1A70     		strb	r2, [r3]
  55:.\SerialUnit.c ****     accelArray[1] = dataArray[0];   // dataArray[0] - ID 0
 157              		.loc 1 55 0
 158 000e 3F4B     		ldr	r3, .L11
 159 0010 1A78     		ldrb	r2, [r3]
 160 0012 3B1C     		mov	r3, r7
 161 0014 1C33     		add	r3, r3, #28
 162 0016 5A70     		strb	r2, [r3, #1]
  56:.\SerialUnit.c ****     accelArray[2] = dataArray[1];   // dataArray[1] - x
 163              		.loc 1 56 0
 164 0018 3C4B     		ldr	r3, .L11
 165 001a 5A78     		ldrb	r2, [r3, #1]
 166 001c 3B1C     		mov	r3, r7
 167 001e 1C33     		add	r3, r3, #28
 168 0020 9A70     		strb	r2, [r3, #2]
  57:.\SerialUnit.c ****     accelArray[3] = dataArray[2];   // dataArray[2] - y
 169              		.loc 1 57 0
ARM GAS  C:\Users\Jeppe\AppData\Local\Temp\ccw1UznF.s 			page 5


 170 0022 3A4B     		ldr	r3, .L11
 171 0024 9A78     		ldrb	r2, [r3, #2]
 172 0026 3B1C     		mov	r3, r7
 173 0028 1C33     		add	r3, r3, #28
 174 002a DA70     		strb	r2, [r3, #3]
  58:.\SerialUnit.c ****     accelArray[4] = dataArray[3];   // dataArray[3] - z
 175              		.loc 1 58 0
 176 002c 374B     		ldr	r3, .L11
 177 002e DA78     		ldrb	r2, [r3, #3]
 178 0030 3B1C     		mov	r3, r7
 179 0032 1C33     		add	r3, r3, #28
 180 0034 1A71     		strb	r2, [r3, #4]
  59:.\SerialUnit.c ****     accelArray[5] = 0;              // Nul terminering 
 181              		.loc 1 59 0
 182 0036 3B1C     		mov	r3, r7
 183 0038 1C33     		add	r3, r3, #28
 184 003a 0022     		mov	r2, #0
 185 003c 5A71     		strb	r2, [r3, #5]
  60:.\SerialUnit.c ****     
  61:.\SerialUnit.c ****     // Sætter gyroskop array
  62:.\SerialUnit.c ****     gyroArray[0] = START_SENSDATA;
 186              		.loc 1 62 0
 187 003e 3B1C     		mov	r3, r7
 188 0040 1433     		add	r3, r3, #20
 189 0042 0F22     		mov	r2, #15
 190 0044 1A70     		strb	r2, [r3]
  63:.\SerialUnit.c ****     gyroArray[1] = 1+1;             // dataArray[4] - ID 1
 191              		.loc 1 63 0
 192 0046 3B1C     		mov	r3, r7
 193 0048 1433     		add	r3, r3, #20
 194 004a 0222     		mov	r2, #2
 195 004c 5A70     		strb	r2, [r3, #1]
  64:.\SerialUnit.c ****     gyroArray[2] = 1+1;             // dataArray[5] - x
 196              		.loc 1 64 0
 197 004e 3B1C     		mov	r3, r7
 198 0050 1433     		add	r3, r3, #20
 199 0052 0222     		mov	r2, #2
 200 0054 9A70     		strb	r2, [r3, #2]
  65:.\SerialUnit.c ****     gyroArray[3] = 1+1;             // dataArray[6] - y
 201              		.loc 1 65 0
 202 0056 3B1C     		mov	r3, r7
 203 0058 1433     		add	r3, r3, #20
 204 005a 0222     		mov	r2, #2
 205 005c DA70     		strb	r2, [r3, #3]
  66:.\SerialUnit.c ****     gyroArray[4] = 1+1;             // dataArray[7] - z
 206              		.loc 1 66 0
 207 005e 3B1C     		mov	r3, r7
 208 0060 1433     		add	r3, r3, #20
 209 0062 0222     		mov	r2, #2
 210 0064 1A71     		strb	r2, [r3, #4]
  67:.\SerialUnit.c ****     gyroArray[5] = 0;               // Nul terminering
 211              		.loc 1 67 0
 212 0066 3B1C     		mov	r3, r7
 213 0068 1433     		add	r3, r3, #20
 214 006a 0022     		mov	r2, #0
 215 006c 5A71     		strb	r2, [r3, #5]
  68:.\SerialUnit.c ****     
ARM GAS  C:\Users\Jeppe\AppData\Local\Temp\ccw1UznF.s 			page 6


  69:.\SerialUnit.c ****     // Sætter Proximity array
  70:.\SerialUnit.c ****     proxArray[0] = START_SENSDATA;
 216              		.loc 1 70 0
 217 006e 3B1C     		mov	r3, r7
 218 0070 0C33     		add	r3, r3, #12
 219 0072 0F22     		mov	r2, #15
 220 0074 1A70     		strb	r2, [r3]
  71:.\SerialUnit.c ****     proxArray[1] = 2+1;             // dataArray[8]  - ID 2
 221              		.loc 1 71 0
 222 0076 3B1C     		mov	r3, r7
 223 0078 0C33     		add	r3, r3, #12
 224 007a 0322     		mov	r2, #3
 225 007c 5A70     		strb	r2, [r3, #1]
  72:.\SerialUnit.c ****     proxArray[2] = 1+1;             // dataArray[9]  - x
 226              		.loc 1 72 0
 227 007e 3B1C     		mov	r3, r7
 228 0080 0C33     		add	r3, r3, #12
 229 0082 0222     		mov	r2, #2
 230 0084 9A70     		strb	r2, [r3, #2]
  73:.\SerialUnit.c ****     proxArray[3] = 1+1;             // dataArray[10] - y
 231              		.loc 1 73 0
 232 0086 3B1C     		mov	r3, r7
 233 0088 0C33     		add	r3, r3, #12
 234 008a 0222     		mov	r2, #2
 235 008c DA70     		strb	r2, [r3, #3]
  74:.\SerialUnit.c ****     proxArray[4] = 1+1;             // dataArray[11] - z
 236              		.loc 1 74 0
 237 008e 3B1C     		mov	r3, r7
 238 0090 0C33     		add	r3, r3, #12
 239 0092 0222     		mov	r2, #2
 240 0094 1A71     		strb	r2, [r3, #4]
  75:.\SerialUnit.c ****     proxArray[5] = 0;               // Nul terminering
 241              		.loc 1 75 0
 242 0096 3B1C     		mov	r3, r7
 243 0098 0C33     		add	r3, r3, #12
 244 009a 0022     		mov	r2, #0
 245 009c 5A71     		strb	r2, [r3, #5]
  76:.\SerialUnit.c ****     
  77:.\SerialUnit.c ****     // Sætter flex array
  78:.\SerialUnit.c ****     flexArray[0] = START_SENSDATA;
 246              		.loc 1 78 0
 247 009e 3B1D     		add	r3, r7, #4
 248 00a0 0F22     		mov	r2, #15
 249 00a2 1A70     		strb	r2, [r3]
  79:.\SerialUnit.c ****     flexArray[1] = 3+1;             // dataArray[12] - ID 3
 250              		.loc 1 79 0
 251 00a4 3B1D     		add	r3, r7, #4
 252 00a6 0422     		mov	r2, #4
 253 00a8 5A70     		strb	r2, [r3, #1]
  80:.\SerialUnit.c ****     flexArray[2] = 1+1;             // dataArray[13] - x
 254              		.loc 1 80 0
 255 00aa 3B1D     		add	r3, r7, #4
 256 00ac 0222     		mov	r2, #2
 257 00ae 9A70     		strb	r2, [r3, #2]
  81:.\SerialUnit.c ****     flexArray[3] = 1+1;             // dataArray[14] - y
 258              		.loc 1 81 0
 259 00b0 3B1D     		add	r3, r7, #4
ARM GAS  C:\Users\Jeppe\AppData\Local\Temp\ccw1UznF.s 			page 7


 260 00b2 0222     		mov	r2, #2
 261 00b4 DA70     		strb	r2, [r3, #3]
  82:.\SerialUnit.c ****     flexArray[4] = 1+1;             // dataArray[15] - z
 262              		.loc 1 82 0
 263 00b6 3B1D     		add	r3, r7, #4
 264 00b8 0222     		mov	r2, #2
 265 00ba 1A71     		strb	r2, [r3, #4]
  83:.\SerialUnit.c ****     flexArray[5] = 0;               // Nul terminering
 266              		.loc 1 83 0
 267 00bc 3B1D     		add	r3, r7, #4
 268 00be 0022     		mov	r2, #0
 269 00c0 5A71     		strb	r2, [r3, #5]
  84:.\SerialUnit.c ****     
  85:.\SerialUnit.c ****     
  86:.\SerialUnit.c ****     
  87:.\SerialUnit.c ****     
  88:.\SerialUnit.c ****     // Send sensordata
  89:.\SerialUnit.c ****     //CyDelay(3);
  90:.\SerialUnit.c ****     UART_1_UartPutString(accelArray);
 270              		.loc 1 90 0
 271 00c2 3B1C     		mov	r3, r7
 272 00c4 1C33     		add	r3, r3, #28
 273 00c6 181C     		mov	r0, r3
 274 00c8 FFF7FEFF 		bl	UART_1_UartPutString
  91:.\SerialUnit.c ****     //CyDelay(3);
  92:.\SerialUnit.c ****     //UART_1_UartPutString(gyroArray);
  93:.\SerialUnit.c ****     //CyDelay(3);
  94:.\SerialUnit.c ****     //UART_1_UartPutString(proxArray);
  95:.\SerialUnit.c ****     //CyDelay(3);
  96:.\SerialUnit.c ****     //UART_1_UartPutString(flexArray);
  97:.\SerialUnit.c ****     
  98:.\SerialUnit.c ****     //Error Check om I2C sensordata er valid
  99:.\SerialUnit.c ****     if((dataArray[1] == 65)&&(dataArray[2] == 65)&&(dataArray[3] == 65))
 275              		.loc 1 99 0
 276 00cc 0F4B     		ldr	r3, .L11
 277 00ce 5B78     		ldrb	r3, [r3, #1]
 278 00d0 412B     		cmp	r3, #65
 279 00d2 0AD1     		bne	.L8
 280              		.loc 1 99 0 is_stmt 0 discriminator 1
 281 00d4 0D4B     		ldr	r3, .L11
 282 00d6 9B78     		ldrb	r3, [r3, #2]
 283 00d8 412B     		cmp	r3, #65
 284 00da 06D1     		bne	.L8
 285 00dc 0B4B     		ldr	r3, .L11
 286 00de DB78     		ldrb	r3, [r3, #3]
 287 00e0 412B     		cmp	r3, #65
 288 00e2 02D1     		bne	.L8
 100:.\SerialUnit.c ****     {
 101:.\SerialUnit.c ****         ERRORPIN_Write(1);
 289              		.loc 1 101 0 is_stmt 1
 290 00e4 0120     		mov	r0, #1
 291 00e6 FFF7FEFF 		bl	ERRORPIN_Write
 292              	.L8:
 102:.\SerialUnit.c ****     }
 103:.\SerialUnit.c ****     
 104:.\SerialUnit.c ****     //Reset dataArray til kendt acii værdier 48 = '0';
 105:.\SerialUnit.c ****     int i;
ARM GAS  C:\Users\Jeppe\AppData\Local\Temp\ccw1UznF.s 			page 8


 106:.\SerialUnit.c ****     for(i = 0; i < MAXSENSDATA; i++)
 293              		.loc 1 106 0
 294 00ea 0023     		mov	r3, #0
 295 00ec 7B62     		str	r3, [r7, #36]
 296 00ee 07E0     		b	.L9
 297              	.L10:
 107:.\SerialUnit.c ****     {
 108:.\SerialUnit.c ****         dataArray[i] = 48;
 298              		.loc 1 108 0 discriminator 2
 299 00f0 064A     		ldr	r2, .L11
 300 00f2 7B6A     		ldr	r3, [r7, #36]
 301 00f4 D318     		add	r3, r2, r3
 302 00f6 3022     		mov	r2, #48
 303 00f8 1A70     		strb	r2, [r3]
 106:.\SerialUnit.c ****     for(i = 0; i < MAXSENSDATA; i++)
 304              		.loc 1 106 0 discriminator 2
 305 00fa 7B6A     		ldr	r3, [r7, #36]
 306 00fc 0133     		add	r3, r3, #1
 307 00fe 7B62     		str	r3, [r7, #36]
 308              	.L9:
 106:.\SerialUnit.c ****     for(i = 0; i < MAXSENSDATA; i++)
 309              		.loc 1 106 0 is_stmt 0 discriminator 1
 310 0100 7B6A     		ldr	r3, [r7, #36]
 311 0102 0F2B     		cmp	r3, #15
 312 0104 F4DD     		ble	.L10
 109:.\SerialUnit.c ****     }
 110:.\SerialUnit.c ****     
 111:.\SerialUnit.c **** }
 313              		.loc 1 111 0 is_stmt 1
 314 0106 BD46     		mov	sp, r7
 315 0108 0AB0     		add	sp, sp, #40
 316              		@ sp needed for prologue
 317 010a 80BD     		pop	{r7, pc}
 318              	.L12:
 319              		.align	2
 320              	.L11:
 321 010c 00000000 		.word	dataArray
 322              		.cfi_endproc
 323              	.LFE35:
 324              		.size	sendDataArray, .-sendDataArray
 325              		.text
 326              	.Letext0: