ARM GAS  C:\Users\Kristian\AppData\Local\Temp\cc9TaLEy.s 			page 1


   1              		.cpu cortex-m0
   2              		.fpu softvfp
   3              		.eabi_attribute 20, 1
   4              		.eabi_attribute 21, 1
   5              		.eabi_attribute 23, 3
   6              		.eabi_attribute 24, 1
   7              		.eabi_attribute 25, 1
   8              		.eabi_attribute 26, 1
   9              		.eabi_attribute 30, 6
  10              		.eabi_attribute 34, 0
  11              		.eabi_attribute 18, 4
  12              		.code	16
  13              		.file	"main.c"
  14              		.text
  15              	.Ltext0:
  16              		.cfi_sections	.debug_frame
  17              		.global	numOfRegToRead
  18              		.bss
  19              		.type	numOfRegToRead, %object
  20              		.size	numOfRegToRead, 1
  21              	numOfRegToRead:
  22 0000 00       		.space	1
  23              		.comm	sensArray,1152,4
  24              		.section	.rodata
  25              		.align	2
  26              	.LC0:
  27 0000 53656E73 		.ascii	"Sensor Array is:\012\015\000"
  27      6F722041 
  27      72726179 
  27      2069733A 
  27      0A0D00
  28 0013 00       		.align	2
  29              	.LC3:
  30 0014 25643A20 		.ascii	"%d: %d, %d, %d\012\015\000"
  30      25642C20 
  30      25642C20 
  30      25640A0D 
  30      00
  31              		.section	.text.main,"ax",%progbits
  32              		.align	2
  33              		.global	main
  34              		.code	16
  35              		.thumb_func
  36              		.type	main, %function
  37              	main:
  38              	.LFB33:
  39              		.file 1 ".\\main.c"
   1:.\main.c      **** /* ========================================
   2:.\main.c      ****  *
   3:.\main.c      ****  * Copyright YOUR COMPANY, THE YEAR
   4:.\main.c      ****  * All Rights Reserved
   5:.\main.c      ****  * UNPUBLISHED, LICENSED SOFTWARE.
   6:.\main.c      ****  *
   7:.\main.c      ****  * CONFIDENTIAL AND PROPRIETARY INFORMATION
   8:.\main.c      ****  * WHICH IS THE PROPERTY OF your company.
   9:.\main.c      ****  *
  10:.\main.c      ****  * ========================================
ARM GAS  C:\Users\Kristian\AppData\Local\Temp\cc9TaLEy.s 			page 2


  11:.\main.c      **** */
  12:.\main.c      **** #include <project.h>
  13:.\main.c      **** #include "stdlib.h"
  14:.\main.c      **** #include <stdio.h>
  15:.\main.c      **** 
  16:.\main.c      **** #define MAXREGNUM 96
  17:.\main.c      **** #define DEFAULT_DATA -1 // Default data i array sættes til 0. 
  18:.\main.c      **** //Accelerometer ADXL345 defines
  19:.\main.c      **** #define ACCEL_ADDRESS 0x53 // jumperen sættes til GND 
  20:.\main.c      **** #define PWR_CTRL_REG 0x2D //Power control registeret Datablad side 26
  21:.\main.c      **** #define PWR_MODE (1<<3) // Sættes i measurement mode, standby til den skal måle (Strømbesparende
  22:.\main.c      **** #define DATAX0 0x32 //least significant 
  23:.\main.c      **** #define DATAX1 0x33 //most significant
  24:.\main.c      **** #define DATAY0 0x34
  25:.\main.c      **** #define DATAY1 0x35
  26:.\main.c      **** #define DATAZ0 0x36
  27:.\main.c      **** #define DATAZ1 0x37
  28:.\main.c      **** 
  29:.\main.c      **** //Gyroscope MPU6050 defines 
  30:.\main.c      **** #define GYRO_ADDRESS 0x68 //Jumperen sættes til GND 
  31:.\main.c      **** #define GYRO_XOUT_H 0x43 // Most significant
  32:.\main.c      **** #define GYRO_XOUT_L 0x44 // Least significant 
  33:.\main.c      **** #define GYRO_YOUT_H 0x45
  34:.\main.c      **** #define GYRO_YOUT_L 0x46
  35:.\main.c      **** #define GYRO_ZOUT_H 0x47
  36:.\main.c      **** #define GYRO_ZOUT_L 0x48
  37:.\main.c      **** 
  38:.\main.c      **** 
  39:.\main.c      **** 
  40:.\main.c      **** uint8_t numOfRegToRead = 0;	//current number of initialized sensor registers to read from 
  41:.\main.c      ****  
  42:.\main.c      **** int sensArray[MAXREGNUM][3];	//Array containing {i2c device address, registerToRead, dataTarget}
  43:.\main.c      **** 								//Initeres til 0 og fyldes op undervejs i funktionen setSensarray
  44:.\main.c      **** 
  45:.\main.c      **** //Prototyper
  46:.\main.c      **** void setupI2C();
  47:.\main.c      **** void initUART();
  48:.\main.c      **** void initSensors();
  49:.\main.c      **** int readAllSensors();
  50:.\main.c      **** int readSensor(int i);
  51:.\main.c      **** void initADXL345();
  52:.\main.c      **** void initMPU6050();
  53:.\main.c      **** void setSensArray(int deviceAddress, int registerToRead, int dataTarget);
  54:.\main.c      **** int readI2C(int numOfReg);
  55:.\main.c      **** void convSensData();
  56:.\main.c      **** void handleI2CError();
  57:.\main.c      **** 
  58:.\main.c      **** 
  59:.\main.c      **** 
  60:.\main.c      **** int main()
  61:.\main.c      **** {
  40              		.loc 1 61 0
  41              		.cfi_startproc
  42 0000 B0B5     		push	{r4, r5, r7, lr}
  43              	.LCFI0:
  44              		.cfi_def_cfa_offset 16
  45              		.cfi_offset 4, -16
ARM GAS  C:\Users\Kristian\AppData\Local\Temp\cc9TaLEy.s 			page 3


  46              		.cfi_offset 5, -12
  47              		.cfi_offset 7, -8
  48              		.cfi_offset 14, -4
  49 0002 88B0     		sub	sp, sp, #32
  50              	.LCFI1:
  51              		.cfi_def_cfa_offset 48
  52 0004 02AF     		add	r7, sp, #8
  53              	.LCFI2:
  54              		.cfi_def_cfa 7, 40
  62:.\main.c      ****     initUART();
  55              		.loc 1 62 0
  56 0006 FFF7FEFF 		bl	initUART
  63:.\main.c      **** 	setupI2C(); 
  57              		.loc 1 63 0
  58 000a FFF7FEFF 		bl	setupI2C
  64:.\main.c      **** 	
  65:.\main.c      **** 	initSensors();
  59              		.loc 1 65 0
  60 000e FFF7FEFF 		bl	initSensors
  66:.\main.c      **** 	
  67:.\main.c      **** 	//while(1)
  68:.\main.c      **** 		readAllSensors();
  61              		.loc 1 68 0
  62 0012 FFF7FEFF 		bl	readAllSensors
  69:.\main.c      ****         
  70:.\main.c      ****         //Tester med UART at array'et bliver fyldt rigtig 
  71:.\main.c      ****         UART_1_UartPutString("Sensor Array is:\n\r"); 
  63              		.loc 1 71 0
  64 0016 1F4B     		ldr	r3, .L4
  65 0018 181C     		mov	r0, r3
  66 001a FFF7FEFF 		bl	UART_1_UartPutString
  72:.\main.c      ****         int i;
  73:.\main.c      ****         char arrayString[20];
  74:.\main.c      ****         for(i = 0; i < numOfRegToRead; i++)
  67              		.loc 1 74 0
  68 001e 0023     		mov	r3, #0
  69 0020 7B61     		str	r3, [r7, #20]
  70 0022 2AE0     		b	.L2
  71              	.L3:
  75:.\main.c      ****         {
  76:.\main.c      ****             sprintf(arrayString, "%d: %d, %d, %d\n\r", i, sensArray[i][0], sensArray[i][1], sensArr
  72              		.loc 1 76 0 discriminator 2
  73 0024 1C49     		ldr	r1, .L4+4
  74 0026 7A69     		ldr	r2, [r7, #20]
  75 0028 131C     		mov	r3, r2
  76 002a 5B00     		lsl	r3, r3, #1
  77 002c 9B18     		add	r3, r3, r2
  78 002e 9B00     		lsl	r3, r3, #2
  79 0030 5C58     		ldr	r4, [r3, r1]
  80 0032 1949     		ldr	r1, .L4+4
  81 0034 7A69     		ldr	r2, [r7, #20]
  82 0036 131C     		mov	r3, r2
  83 0038 5B00     		lsl	r3, r3, #1
  84 003a 9B18     		add	r3, r3, r2
  85 003c 9B00     		lsl	r3, r3, #2
  86 003e CB18     		add	r3, r1, r3
  87 0040 0433     		add	r3, r3, #4
ARM GAS  C:\Users\Kristian\AppData\Local\Temp\cc9TaLEy.s 			page 4


  88 0042 1D68     		ldr	r5, [r3]
  89 0044 1449     		ldr	r1, .L4+4
  90 0046 7A69     		ldr	r2, [r7, #20]
  91 0048 131C     		mov	r3, r2
  92 004a 5B00     		lsl	r3, r3, #1
  93 004c 9B18     		add	r3, r3, r2
  94 004e 9B00     		lsl	r3, r3, #2
  95 0050 CB18     		add	r3, r1, r3
  96 0052 0833     		add	r3, r3, #8
  97 0054 1868     		ldr	r0, [r3]
  98 0056 391C     		mov	r1, r7
  99 0058 104A     		ldr	r2, .L4+8
 100 005a 7B69     		ldr	r3, [r7, #20]
 101 005c 0095     		str	r5, [sp]
 102 005e 0190     		str	r0, [sp, #4]
 103 0060 081C     		mov	r0, r1
 104 0062 111C     		mov	r1, r2
 105 0064 1A1C     		mov	r2, r3
 106 0066 231C     		mov	r3, r4
 107 0068 FFF7FEFF 		bl	sprintf
  77:.\main.c      ****             UART_1_UartPutString(arrayString); 
 108              		.loc 1 77 0 discriminator 2
 109 006c 3B1C     		mov	r3, r7
 110 006e 181C     		mov	r0, r3
 111 0070 FFF7FEFF 		bl	UART_1_UartPutString
  74:.\main.c      ****         for(i = 0; i < numOfRegToRead; i++)
 112              		.loc 1 74 0 discriminator 2
 113 0074 7B69     		ldr	r3, [r7, #20]
 114 0076 0133     		add	r3, r3, #1
 115 0078 7B61     		str	r3, [r7, #20]
 116              	.L2:
  74:.\main.c      ****         for(i = 0; i < numOfRegToRead; i++)
 117              		.loc 1 74 0 is_stmt 0 discriminator 1
 118 007a 094B     		ldr	r3, .L4+12
 119 007c 1B78     		ldrb	r3, [r3]
 120 007e 1A1C     		mov	r2, r3
 121 0080 7B69     		ldr	r3, [r7, #20]
 122 0082 9A42     		cmp	r2, r3
 123 0084 CEDC     		bgt	.L3
  78:.\main.c      ****         }
  79:.\main.c      ****         
  80:.\main.c      ****         //Tjekker at data bliver samlet korrekt. 
  81:.\main.c      ****         convSensData();
 124              		.loc 1 81 0 is_stmt 1
 125 0086 FFF7FEFF 		bl	convSensData
  82:.\main.c      ****             
  83:.\main.c      ****           
  84:.\main.c      ****             
  85:.\main.c      **** 		
  86:.\main.c      **** 	//return 0;
  87:.\main.c      **** }
 126              		.loc 1 87 0
 127 008a 181C     		mov	r0, r3
 128 008c BD46     		mov	sp, r7
 129 008e 06B0     		add	sp, sp, #24
 130              		@ sp needed for prologue
 131 0090 B0BD     		pop	{r4, r5, r7, pc}
ARM GAS  C:\Users\Kristian\AppData\Local\Temp\cc9TaLEy.s 			page 5


 132              	.L5:
 133 0092 C046     		.align	2
 134              	.L4:
 135 0094 00000000 		.word	.LC0
 136 0098 00000000 		.word	sensArray
 137 009c 14000000 		.word	.LC3
 138 00a0 00000000 		.word	numOfRegToRead
 139              		.cfi_endproc
 140              	.LFE33:
 141              		.size	main, .-main
 142              		.section	.text.initSensors,"ax",%progbits
 143              		.align	2
 144              		.global	initSensors
 145              		.code	16
 146              		.thumb_func
 147              		.type	initSensors, %function
 148              	initSensors:
 149              	.LFB34:
  88:.\main.c      **** 
  89:.\main.c      **** void initSensors()
  90:.\main.c      **** {	
 150              		.loc 1 90 0
 151              		.cfi_startproc
 152 0000 80B5     		push	{r7, lr}
 153              	.LCFI3:
 154              		.cfi_def_cfa_offset 8
 155              		.cfi_offset 7, -8
 156              		.cfi_offset 14, -4
 157 0002 00AF     		add	r7, sp, #0
 158              	.LCFI4:
 159              		.cfi_def_cfa_register 7
  91:.\main.c      **** 	/***** INIT INDIVIDUAL SENSORS *****/
  92:.\main.c      **** 	//initMPU6050();	//Gyroscope
  93:.\main.c      **** 	initADXL345();	//Accellerometer
 160              		.loc 1 93 0
 161 0004 FFF7FEFF 		bl	initADXL345
  94:.\main.c      **** 	// ..osv
  95:.\main.c      **** }
 162              		.loc 1 95 0
 163 0008 BD46     		mov	sp, r7
 164              		@ sp needed for prologue
 165 000a 80BD     		pop	{r7, pc}
 166              		.cfi_endproc
 167              	.LFE34:
 168              		.size	initSensors, .-initSensors
 169              		.section	.text.setSensArray,"ax",%progbits
 170              		.align	2
 171              		.global	setSensArray
 172              		.code	16
 173              		.thumb_func
 174              		.type	setSensArray, %function
 175              	setSensArray:
 176              	.LFB35:
  96:.\main.c      **** 
  97:.\main.c      **** void setSensArray(int deviceAddress, int registerToRead, int dataTarget)
  98:.\main.c      **** {
 177              		.loc 1 98 0
ARM GAS  C:\Users\Kristian\AppData\Local\Temp\cc9TaLEy.s 			page 6


 178              		.cfi_startproc
 179 0000 80B5     		push	{r7, lr}
 180              	.LCFI5:
 181              		.cfi_def_cfa_offset 8
 182              		.cfi_offset 7, -8
 183              		.cfi_offset 14, -4
 184 0002 84B0     		sub	sp, sp, #16
 185              	.LCFI6:
 186              		.cfi_def_cfa_offset 24
 187 0004 00AF     		add	r7, sp, #0
 188              	.LCFI7:
 189              		.cfi_def_cfa_register 7
 190 0006 F860     		str	r0, [r7, #12]
 191 0008 B960     		str	r1, [r7, #8]
 192 000a 7A60     		str	r2, [r7, #4]
  99:.\main.c      **** 	sensArray[numOfRegToRead][0]=deviceAddress;		//set device address
 193              		.loc 1 99 0
 194 000c 154B     		ldr	r3, .L8
 195 000e 1B78     		ldrb	r3, [r3]
 196 0010 1A1C     		mov	r2, r3
 197 0012 1549     		ldr	r1, .L8+4
 198 0014 131C     		mov	r3, r2
 199 0016 5B00     		lsl	r3, r3, #1
 200 0018 9B18     		add	r3, r3, r2
 201 001a 9B00     		lsl	r3, r3, #2
 202 001c FA68     		ldr	r2, [r7, #12]
 203 001e 5A50     		str	r2, [r3, r1]
 100:.\main.c      **** 	sensArray[numOfRegToRead][1]=registerToRead;	//set register for future read
 204              		.loc 1 100 0
 205 0020 104B     		ldr	r3, .L8
 206 0022 1B78     		ldrb	r3, [r3]
 207 0024 1A1C     		mov	r2, r3
 208 0026 1049     		ldr	r1, .L8+4
 209 0028 131C     		mov	r3, r2
 210 002a 5B00     		lsl	r3, r3, #1
 211 002c 9B18     		add	r3, r3, r2
 212 002e 9B00     		lsl	r3, r3, #2
 213 0030 CB18     		add	r3, r1, r3
 214 0032 0433     		add	r3, r3, #4
 215 0034 BA68     		ldr	r2, [r7, #8]
 216 0036 1A60     		str	r2, [r3]
 101:.\main.c      **** 	sensArray[numOfRegToRead][2]=dataTarget;		//set where to save read data
 217              		.loc 1 101 0
 218 0038 0A4B     		ldr	r3, .L8
 219 003a 1B78     		ldrb	r3, [r3]
 220 003c 1A1C     		mov	r2, r3
 221 003e 0A49     		ldr	r1, .L8+4
 222 0040 131C     		mov	r3, r2
 223 0042 5B00     		lsl	r3, r3, #1
 224 0044 9B18     		add	r3, r3, r2
 225 0046 9B00     		lsl	r3, r3, #2
 226 0048 CB18     		add	r3, r1, r3
 227 004a 0833     		add	r3, r3, #8
 228 004c 7A68     		ldr	r2, [r7, #4]
 229 004e 1A60     		str	r2, [r3]
 102:.\main.c      **** 	++numOfRegToRead;								//increment current number of places in array that are set
 230              		.loc 1 102 0
ARM GAS  C:\Users\Kristian\AppData\Local\Temp\cc9TaLEy.s 			page 7


 231 0050 044B     		ldr	r3, .L8
 232 0052 1B78     		ldrb	r3, [r3]
 233 0054 0133     		add	r3, r3, #1
 234 0056 DAB2     		uxtb	r2, r3
 235 0058 024B     		ldr	r3, .L8
 236 005a 1A70     		strb	r2, [r3]
 103:.\main.c      **** 	
 104:.\main.c      **** 	//Skriv noget fejlsikring hvis numOfRegToRead kommer over 96, skal der sættes den pin høj på PS
 105:.\main.c      **** }
 237              		.loc 1 105 0
 238 005c BD46     		mov	sp, r7
 239 005e 04B0     		add	sp, sp, #16
 240              		@ sp needed for prologue
 241 0060 80BD     		pop	{r7, pc}
 242              	.L9:
 243 0062 C046     		.align	2
 244              	.L8:
 245 0064 00000000 		.word	numOfRegToRead
 246 0068 00000000 		.word	sensArray
 247              		.cfi_endproc
 248              	.LFE35:
 249              		.size	setSensArray, .-setSensArray
 250              		.section	.text.readAllSensors,"ax",%progbits
 251              		.align	2
 252              		.global	readAllSensors
 253              		.code	16
 254              		.thumb_func
 255              		.type	readAllSensors, %function
 256              	readAllSensors:
 257              	.LFB36:
 106:.\main.c      **** 
 107:.\main.c      **** int readAllSensors()
 108:.\main.c      **** {
 258              		.loc 1 108 0
 259              		.cfi_startproc
 260 0000 80B5     		push	{r7, lr}
 261              	.LCFI8:
 262              		.cfi_def_cfa_offset 8
 263              		.cfi_offset 7, -8
 264              		.cfi_offset 14, -4
 265 0002 82B0     		sub	sp, sp, #8
 266              	.LCFI9:
 267              		.cfi_def_cfa_offset 16
 268 0004 00AF     		add	r7, sp, #0
 269              	.LCFI10:
 270              		.cfi_def_cfa_register 7
 109:.\main.c      ****     int numOfReg; 
 110:.\main.c      **** 	for (numOfReg = 0; numOfReg < numOfRegToRead; numOfReg++)
 271              		.loc 1 110 0
 272 0006 0023     		mov	r3, #0
 273 0008 7B60     		str	r3, [r7, #4]
 274 000a 06E0     		b	.L11
 275              	.L12:
 111:.\main.c      **** 	{
 112:.\main.c      **** 		readI2C(numOfReg);
 276              		.loc 1 112 0 discriminator 2
 277 000c 7B68     		ldr	r3, [r7, #4]
ARM GAS  C:\Users\Kristian\AppData\Local\Temp\cc9TaLEy.s 			page 8


 278 000e 181C     		mov	r0, r3
 279 0010 FFF7FEFF 		bl	readI2C
 110:.\main.c      **** 	for (numOfReg = 0; numOfReg < numOfRegToRead; numOfReg++)
 280              		.loc 1 110 0 discriminator 2
 281 0014 7B68     		ldr	r3, [r7, #4]
 282 0016 0133     		add	r3, r3, #1
 283 0018 7B60     		str	r3, [r7, #4]
 284              	.L11:
 110:.\main.c      **** 	for (numOfReg = 0; numOfReg < numOfRegToRead; numOfReg++)
 285              		.loc 1 110 0 is_stmt 0 discriminator 1
 286 001a 054B     		ldr	r3, .L13
 287 001c 1B78     		ldrb	r3, [r3]
 288 001e 1A1C     		mov	r2, r3
 289 0020 7B68     		ldr	r3, [r7, #4]
 290 0022 9A42     		cmp	r2, r3
 291 0024 F2DC     		bgt	.L12
 113:.\main.c      **** 	}
 114:.\main.c      **** 	
 115:.\main.c      **** }
 292              		.loc 1 115 0 is_stmt 1
 293 0026 181C     		mov	r0, r3
 294 0028 BD46     		mov	sp, r7
 295 002a 02B0     		add	sp, sp, #8
 296              		@ sp needed for prologue
 297 002c 80BD     		pop	{r7, pc}
 298              	.L14:
 299 002e C046     		.align	2
 300              	.L13:
 301 0030 00000000 		.word	numOfRegToRead
 302              		.cfi_endproc
 303              	.LFE36:
 304              		.size	readAllSensors, .-readAllSensors
 305              		.section	.text.readI2C,"ax",%progbits
 306              		.align	2
 307              		.global	readI2C
 308              		.code	16
 309              		.thumb_func
 310              		.type	readI2C, %function
 311              	readI2C:
 312              	.LFB37:
 116:.\main.c      **** 
 117:.\main.c      **** int readI2C(int numOfReg)
 118:.\main.c      **** {
 313              		.loc 1 118 0
 314              		.cfi_startproc
 315 0000 80B5     		push	{r7, lr}
 316              	.LCFI11:
 317              		.cfi_def_cfa_offset 8
 318              		.cfi_offset 7, -8
 319              		.cfi_offset 14, -4
 320 0002 84B0     		sub	sp, sp, #16
 321              	.LCFI12:
 322              		.cfi_def_cfa_offset 24
 323 0004 00AF     		add	r7, sp, #0
 324              	.LCFI13:
 325              		.cfi_def_cfa_register 7
 326 0006 7860     		str	r0, [r7, #4]
ARM GAS  C:\Users\Kristian\AppData\Local\Temp\cc9TaLEy.s 			page 9


 119:.\main.c      ****    	uint8 rawData; 
 120:.\main.c      ****     
 121:.\main.c      **** 	if (I2C_1_I2CMasterSendStart(sensArray[numOfReg][0], I2C_1_I2C_WRITE_XFER_MODE) == I2C_1_I2C_MSTR_
 327              		.loc 1 121 0
 328 0008 2149     		ldr	r1, .L18
 329 000a 7A68     		ldr	r2, [r7, #4]
 330 000c 131C     		mov	r3, r2
 331 000e 5B00     		lsl	r3, r3, #1
 332 0010 9B18     		add	r3, r3, r2
 333 0012 9B00     		lsl	r3, r3, #2
 334 0014 5B58     		ldr	r3, [r3, r1]
 335 0016 181C     		mov	r0, r3
 336 0018 0021     		mov	r1, #0
 337 001a FFF7FEFF 		bl	I2C_1_I2CMasterSendStart
 338 001e 031C     		mov	r3, r0
 339 0020 002B     		cmp	r3, #0
 340 0022 31D1     		bne	.L17
 122:.\main.c      ****     { 
 123:.\main.c      ****         if(I2C_1_I2CMasterWriteByte(sensArray[numOfReg][1]) == I2C_1_I2C_MSTR_NO_ERROR)
 341              		.loc 1 123 0
 342 0024 1A49     		ldr	r1, .L18
 343 0026 7A68     		ldr	r2, [r7, #4]
 344 0028 131C     		mov	r3, r2
 345 002a 5B00     		lsl	r3, r3, #1
 346 002c 9B18     		add	r3, r3, r2
 347 002e 9B00     		lsl	r3, r3, #2
 348 0030 CB18     		add	r3, r1, r3
 349 0032 0433     		add	r3, r3, #4
 350 0034 1B68     		ldr	r3, [r3]
 351 0036 181C     		mov	r0, r3
 352 0038 FFF7FEFF 		bl	I2C_1_I2CMasterWriteByte
 353 003c 031C     		mov	r3, r0
 354 003e 002B     		cmp	r3, #0
 355 0040 22D1     		bne	.L17
 124:.\main.c      **** 		{
 125:.\main.c      ****             if(I2C_1_I2CMasterSendRestart(sensArray[numOfReg][0], I2C_1_I2C_READ_XFER_MODE) == I2C_
 356              		.loc 1 125 0
 357 0042 1349     		ldr	r1, .L18
 358 0044 7A68     		ldr	r2, [r7, #4]
 359 0046 131C     		mov	r3, r2
 360 0048 5B00     		lsl	r3, r3, #1
 361 004a 9B18     		add	r3, r3, r2
 362 004c 9B00     		lsl	r3, r3, #2
 363 004e 5B58     		ldr	r3, [r3, r1]
 364 0050 181C     		mov	r0, r3
 365 0052 0121     		mov	r1, #1
 366 0054 FFF7FEFF 		bl	I2C_1_I2CMasterSendRestart
 367 0058 031C     		mov	r3, r0
 368 005a 002B     		cmp	r3, #0
 369 005c 14D1     		bne	.L17
 126:.\main.c      **** 			{
 127:.\main.c      ****                 rawData = I2C_1_I2CMasterReadByte(I2C_1_I2C_NAK_DATA);
 370              		.loc 1 127 0
 371 005e 0120     		mov	r0, #1
 372 0060 FFF7FEFF 		bl	I2C_1_I2CMasterReadByte
 373 0064 021C     		mov	r2, r0
 374 0066 3B1C     		mov	r3, r7
ARM GAS  C:\Users\Kristian\AppData\Local\Temp\cc9TaLEy.s 			page 10


 375 0068 0F33     		add	r3, r3, #15
 376 006a 1A70     		strb	r2, [r3]
 128:.\main.c      ****                 I2C_1_I2CMasterSendStop();
 377              		.loc 1 128 0
 378 006c FFF7FEFF 		bl	I2C_1_I2CMasterSendStop
 129:.\main.c      **** 				
 130:.\main.c      **** 				sensArray[numOfReg][2] = rawData; // gemmer rawData på den tilhørende plads i sensArray. 
 379              		.loc 1 130 0
 380 0070 3B1C     		mov	r3, r7
 381 0072 0F33     		add	r3, r3, #15
 382 0074 1978     		ldrb	r1, [r3]
 383 0076 0648     		ldr	r0, .L18
 384 0078 7A68     		ldr	r2, [r7, #4]
 385 007a 131C     		mov	r3, r2
 386 007c 5B00     		lsl	r3, r3, #1
 387 007e 9B18     		add	r3, r3, r2
 388 0080 9B00     		lsl	r3, r3, #2
 389 0082 C318     		add	r3, r0, r3
 390 0084 0833     		add	r3, r3, #8
 391 0086 1960     		str	r1, [r3]
 392              	.L17:
 131:.\main.c      **** 			}
 132:.\main.c      **** 		}
 133:.\main.c      **** 	}
 134:.\main.c      **** 				
 135:.\main.c      **** 	
 136:.\main.c      **** }
 393              		.loc 1 136 0
 394 0088 181C     		mov	r0, r3
 395 008a BD46     		mov	sp, r7
 396 008c 04B0     		add	sp, sp, #16
 397              		@ sp needed for prologue
 398 008e 80BD     		pop	{r7, pc}
 399              	.L19:
 400              		.align	2
 401              	.L18:
 402 0090 00000000 		.word	sensArray
 403              		.cfi_endproc
 404              	.LFE37:
 405              		.size	readI2C, .-readI2C
 406              		.section	.text.setupI2C,"ax",%progbits
 407              		.align	2
 408              		.global	setupI2C
 409              		.code	16
 410              		.thumb_func
 411              		.type	setupI2C, %function
 412              	setupI2C:
 413              	.LFB38:
 137:.\main.c      **** 
 138:.\main.c      **** void setupI2C()
 139:.\main.c      **** {
 414              		.loc 1 139 0
 415              		.cfi_startproc
 416 0000 80B5     		push	{r7, lr}
 417              	.LCFI14:
 418              		.cfi_def_cfa_offset 8
 419              		.cfi_offset 7, -8
ARM GAS  C:\Users\Kristian\AppData\Local\Temp\cc9TaLEy.s 			page 11


 420              		.cfi_offset 14, -4
 421 0002 00AF     		add	r7, sp, #0
 422              	.LCFI15:
 423              		.cfi_def_cfa_register 7
 140:.\main.c      **** 	I2C_1_Start();
 424              		.loc 1 140 0
 425 0004 FFF7FEFF 		bl	I2C_1_Start
 141:.\main.c      ****     I2C_1_I2CMasterClearStatus();
 426              		.loc 1 141 0
 427 0008 FFF7FEFF 		bl	I2C_1_I2CMasterClearStatus
 142:.\main.c      **** }	
 428              		.loc 1 142 0
 429 000c BD46     		mov	sp, r7
 430              		@ sp needed for prologue
 431 000e 80BD     		pop	{r7, pc}
 432              		.cfi_endproc
 433              	.LFE38:
 434              		.size	setupI2C, .-setupI2C
 435              		.section	.text.initADXL345,"ax",%progbits
 436              		.align	2
 437              		.global	initADXL345
 438              		.code	16
 439              		.thumb_func
 440              		.type	initADXL345, %function
 441              	initADXL345:
 442              	.LFB39:
 143:.\main.c      **** 
 144:.\main.c      **** 
 145:.\main.c      **** //init accelerometer
 146:.\main.c      **** void initADXL345()
 147:.\main.c      **** {
 443              		.loc 1 147 0
 444              		.cfi_startproc
 445 0000 80B5     		push	{r7, lr}
 446              	.LCFI16:
 447              		.cfi_def_cfa_offset 8
 448              		.cfi_offset 7, -8
 449              		.cfi_offset 14, -4
 450 0002 00AF     		add	r7, sp, #0
 451              	.LCFI17:
 452              		.cfi_def_cfa_register 7
 148:.\main.c      **** 	// Fylder ADXL345 ind i sensor array'et. 
 149:.\main.c      **** 	setSensArray(ACCEL_ADDRESS, DATAX0, DEFAULT_DATA);
 453              		.loc 1 149 0
 454 0004 0123     		mov	r3, #1
 455 0006 5B42     		neg	r3, r3
 456 0008 5320     		mov	r0, #83
 457 000a 3221     		mov	r1, #50
 458 000c 1A1C     		mov	r2, r3
 459 000e FFF7FEFF 		bl	setSensArray
 150:.\main.c      **** 	setSensArray(ACCEL_ADDRESS, DATAX1, DEFAULT_DATA);
 460              		.loc 1 150 0
 461 0012 0123     		mov	r3, #1
 462 0014 5B42     		neg	r3, r3
 463 0016 5320     		mov	r0, #83
 464 0018 3321     		mov	r1, #51
 465 001a 1A1C     		mov	r2, r3
ARM GAS  C:\Users\Kristian\AppData\Local\Temp\cc9TaLEy.s 			page 12


 466 001c FFF7FEFF 		bl	setSensArray
 151:.\main.c      **** 	setSensArray(ACCEL_ADDRESS, DATAY0, DEFAULT_DATA);
 467              		.loc 1 151 0
 468 0020 0123     		mov	r3, #1
 469 0022 5B42     		neg	r3, r3
 470 0024 5320     		mov	r0, #83
 471 0026 3421     		mov	r1, #52
 472 0028 1A1C     		mov	r2, r3
 473 002a FFF7FEFF 		bl	setSensArray
 152:.\main.c      **** 	setSensArray(ACCEL_ADDRESS, DATAY1, DEFAULT_DATA);
 474              		.loc 1 152 0
 475 002e 0123     		mov	r3, #1
 476 0030 5B42     		neg	r3, r3
 477 0032 5320     		mov	r0, #83
 478 0034 3521     		mov	r1, #53
 479 0036 1A1C     		mov	r2, r3
 480 0038 FFF7FEFF 		bl	setSensArray
 153:.\main.c      **** 	setSensArray(ACCEL_ADDRESS, DATAZ0, DEFAULT_DATA);
 481              		.loc 1 153 0
 482 003c 0123     		mov	r3, #1
 483 003e 5B42     		neg	r3, r3
 484 0040 5320     		mov	r0, #83
 485 0042 3621     		mov	r1, #54
 486 0044 1A1C     		mov	r2, r3
 487 0046 FFF7FEFF 		bl	setSensArray
 154:.\main.c      **** 	setSensArray(ACCEL_ADDRESS, DATAZ1, DEFAULT_DATA);
 488              		.loc 1 154 0
 489 004a 0123     		mov	r3, #1
 490 004c 5B42     		neg	r3, r3
 491 004e 5320     		mov	r0, #83
 492 0050 3721     		mov	r1, #55
 493 0052 1A1C     		mov	r2, r3
 494 0054 FFF7FEFF 		bl	setSensArray
 155:.\main.c      **** 	
 156:.\main.c      **** 	//Opsætter til I2C 
 157:.\main.c      **** 	if(I2C_1_I2CMasterSendStart(ACCEL_ADDRESS, I2C_1_I2C_WRITE_XFER_MODE) == I2C_1_I2C_MSTR_NO_ERROR /
 495              		.loc 1 157 0
 496 0058 5320     		mov	r0, #83
 497 005a 0021     		mov	r1, #0
 498 005c FFF7FEFF 		bl	I2C_1_I2CMasterSendStart
 499 0060 031C     		mov	r3, r0
 500 0062 002B     		cmp	r3, #0
 501 0064 0DD1     		bne	.L21
 158:.\main.c      ****         && I2C_1_I2CMasterWriteByte(PWR_CTRL_REG) == I2C_1_I2C_MSTR_NO_ERROR // POWER CONTROL REGIS
 502              		.loc 1 158 0
 503 0066 2D20     		mov	r0, #45
 504 0068 FFF7FEFF 		bl	I2C_1_I2CMasterWriteByte
 505 006c 031C     		mov	r3, r0
 506 006e 002B     		cmp	r3, #0
 507 0070 07D1     		bne	.L21
 159:.\main.c      ****         && I2C_1_I2CMasterWriteByte(PWR_MODE) == I2C_1_I2C_MSTR_NO_ERROR) // Sættes i measurement 
 508              		.loc 1 159 0
 509 0072 0820     		mov	r0, #8
 510 0074 FFF7FEFF 		bl	I2C_1_I2CMasterWriteByte
 511 0078 031C     		mov	r3, r0
 512 007a 002B     		cmp	r3, #0
 513 007c 01D1     		bne	.L21
ARM GAS  C:\Users\Kristian\AppData\Local\Temp\cc9TaLEy.s 			page 13


 160:.\main.c      **** 	handleI2CError();
 514              		.loc 1 160 0
 515 007e FFF7FEFF 		bl	handleI2CError
 516              	.L21:
 161:.\main.c      **** }
 517              		.loc 1 161 0
 518 0082 BD46     		mov	sp, r7
 519              		@ sp needed for prologue
 520 0084 80BD     		pop	{r7, pc}
 521              		.cfi_endproc
 522              	.LFE39:
 523              		.size	initADXL345, .-initADXL345
 524 0086 C046     		.section	.text.initMPU6050,"ax",%progbits
 525              		.align	2
 526              		.global	initMPU6050
 527              		.code	16
 528              		.thumb_func
 529              		.type	initMPU6050, %function
 530              	initMPU6050:
 531              	.LFB40:
 162:.\main.c      **** 
 163:.\main.c      **** //init gyroscope 
 164:.\main.c      **** void initMPU6050()
 165:.\main.c      **** {
 532              		.loc 1 165 0
 533              		.cfi_startproc
 534 0000 80B5     		push	{r7, lr}
 535              	.LCFI18:
 536              		.cfi_def_cfa_offset 8
 537              		.cfi_offset 7, -8
 538              		.cfi_offset 14, -4
 539 0002 00AF     		add	r7, sp, #0
 540              	.LCFI19:
 541              		.cfi_def_cfa_register 7
 166:.\main.c      **** 	// Fylder ADXL345 ind i sensor array'et. 
 167:.\main.c      **** 	setSensArray(GYRO_ADDRESS, GYRO_XOUT_H, DEFAULT_DATA);
 542              		.loc 1 167 0
 543 0004 0123     		mov	r3, #1
 544 0006 5B42     		neg	r3, r3
 545 0008 6820     		mov	r0, #104
 546 000a 4321     		mov	r1, #67
 547 000c 1A1C     		mov	r2, r3
 548 000e FFF7FEFF 		bl	setSensArray
 168:.\main.c      ****     setSensArray(GYRO_ADDRESS, GYRO_XOUT_L, DEFAULT_DATA);
 549              		.loc 1 168 0
 550 0012 0123     		mov	r3, #1
 551 0014 5B42     		neg	r3, r3
 552 0016 6820     		mov	r0, #104
 553 0018 4421     		mov	r1, #68
 554 001a 1A1C     		mov	r2, r3
 555 001c FFF7FEFF 		bl	setSensArray
 169:.\main.c      **** 	setSensArray(GYRO_ADDRESS, GYRO_YOUT_H, DEFAULT_DATA);
 556              		.loc 1 169 0
 557 0020 0123     		mov	r3, #1
 558 0022 5B42     		neg	r3, r3
 559 0024 6820     		mov	r0, #104
 560 0026 4521     		mov	r1, #69
ARM GAS  C:\Users\Kristian\AppData\Local\Temp\cc9TaLEy.s 			page 14


 561 0028 1A1C     		mov	r2, r3
 562 002a FFF7FEFF 		bl	setSensArray
 170:.\main.c      **** 	setSensArray(GYRO_ADDRESS, GYRO_YOUT_L, DEFAULT_DATA);
 563              		.loc 1 170 0
 564 002e 0123     		mov	r3, #1
 565 0030 5B42     		neg	r3, r3
 566 0032 6820     		mov	r0, #104
 567 0034 4621     		mov	r1, #70
 568 0036 1A1C     		mov	r2, r3
 569 0038 FFF7FEFF 		bl	setSensArray
 171:.\main.c      **** 	setSensArray(GYRO_ADDRESS, GYRO_ZOUT_H, DEFAULT_DATA);
 570              		.loc 1 171 0
 571 003c 0123     		mov	r3, #1
 572 003e 5B42     		neg	r3, r3
 573 0040 6820     		mov	r0, #104
 574 0042 4721     		mov	r1, #71
 575 0044 1A1C     		mov	r2, r3
 576 0046 FFF7FEFF 		bl	setSensArray
 172:.\main.c      **** 	setSensArray(GYRO_ADDRESS, GYRO_ZOUT_L, DEFAULT_DATA);
 577              		.loc 1 172 0
 578 004a 0123     		mov	r3, #1
 579 004c 5B42     		neg	r3, r3
 580 004e 6820     		mov	r0, #104
 581 0050 4821     		mov	r1, #72
 582 0052 1A1C     		mov	r2, r3
 583 0054 FFF7FEFF 		bl	setSensArray
 173:.\main.c      **** 	
 174:.\main.c      **** 	//Opsætter til I2C 
 175:.\main.c      **** 	if(I2C_1_I2CMasterSendStart(GYRO_ADDRESS, I2C_1_I2C_WRITE_XFER_MODE) == I2C_1_I2C_MSTR_NO_ERROR) /
 584              		.loc 1 175 0
 585 0058 6820     		mov	r0, #104
 586 005a 0021     		mov	r1, #0
 587 005c FFF7FEFF 		bl	I2C_1_I2CMasterSendStart
 588 0060 031C     		mov	r3, r0
 589 0062 002B     		cmp	r3, #0
 590 0064 01D1     		bne	.L23
 176:.\main.c      **** 	handleI2CError();
 591              		.loc 1 176 0
 592 0066 FFF7FEFF 		bl	handleI2CError
 593              	.L23:
 177:.\main.c      **** }
 594              		.loc 1 177 0
 595 006a BD46     		mov	sp, r7
 596              		@ sp needed for prologue
 597 006c 80BD     		pop	{r7, pc}
 598              		.cfi_endproc
 599              	.LFE40:
 600              		.size	initMPU6050, .-initMPU6050
 601 006e C046     		.section	.rodata
 602 0025 000000   		.align	2
 603              	.LC11:
 604 0028 78206973 		.ascii	"x is: %d, y is: %d, z is: %d\012\015\000"
 604      3A202564 
 604      2C207920 
 604      69733A20 
 604      25642C20 
 605              		.section	.text.convSensData,"ax",%progbits
ARM GAS  C:\Users\Kristian\AppData\Local\Temp\cc9TaLEy.s 			page 15


 606              		.align	2
 607              		.global	convSensData
 608              		.code	16
 609              		.thumb_func
 610              		.type	convSensData, %function
 611              	convSensData:
 612              	.LFB41:
 178:.\main.c      **** 
 179:.\main.c      **** void convSensData()
 180:.\main.c      **** {
 613              		.loc 1 180 0
 614              		.cfi_startproc
 615 0000 90B5     		push	{r4, r7, lr}
 616              	.LCFI20:
 617              		.cfi_def_cfa_offset 12
 618              		.cfi_offset 4, -12
 619              		.cfi_offset 7, -8
 620              		.cfi_offset 14, -4
 621 0002 8DB0     		sub	sp, sp, #52
 622              	.LCFI21:
 623              		.cfi_def_cfa_offset 64
 624 0004 02AF     		add	r7, sp, #8
 625              	.LCFI22:
 626              		.cfi_def_cfa 7, 56
 181:.\main.c      ****     //ADXL345
 182:.\main.c      ****     int16 x, y, z; 
 183:.\main.c      ****     //Samler most significant og least significant for X
 184:.\main.c      ****     x = sensArray[1][2]<< 8; 
 627              		.loc 1 184 0
 628 0006 254B     		ldr	r3, .L26
 629 0008 5B69     		ldr	r3, [r3, #20]
 630 000a 1A02     		lsl	r2, r3, #8
 631 000c 3B1C     		mov	r3, r7
 632 000e 2633     		add	r3, r3, #38
 633 0010 1A80     		strh	r2, [r3]
 185:.\main.c      ****     x+= sensArray[0][2];
 634              		.loc 1 185 0
 635 0012 224B     		ldr	r3, .L26
 636 0014 9B68     		ldr	r3, [r3, #8]
 637 0016 9AB2     		uxth	r2, r3
 638 0018 3B1C     		mov	r3, r7
 639 001a 2633     		add	r3, r3, #38
 640 001c 1B88     		ldrh	r3, [r3]
 641 001e D318     		add	r3, r2, r3
 642 0020 9AB2     		uxth	r2, r3
 643 0022 3B1C     		mov	r3, r7
 644 0024 2633     		add	r3, r3, #38
 645 0026 1A80     		strh	r2, [r3]
 186:.\main.c      ****     
 187:.\main.c      ****     //Samler most significant og least significant for Y
 188:.\main.c      ****     y = sensArray[3][2]<< 8; 
 646              		.loc 1 188 0
 647 0028 1C4B     		ldr	r3, .L26
 648 002a DB6A     		ldr	r3, [r3, #44]
 649 002c 1A02     		lsl	r2, r3, #8
 650 002e 3B1C     		mov	r3, r7
 651 0030 2433     		add	r3, r3, #36
ARM GAS  C:\Users\Kristian\AppData\Local\Temp\cc9TaLEy.s 			page 16


 652 0032 1A80     		strh	r2, [r3]
 189:.\main.c      ****     y+= sensArray[2][2];
 653              		.loc 1 189 0
 654 0034 194B     		ldr	r3, .L26
 655 0036 1B6A     		ldr	r3, [r3, #32]
 656 0038 9AB2     		uxth	r2, r3
 657 003a 3B1C     		mov	r3, r7
 658 003c 2433     		add	r3, r3, #36
 659 003e 1B88     		ldrh	r3, [r3]
 660 0040 D318     		add	r3, r2, r3
 661 0042 9AB2     		uxth	r2, r3
 662 0044 3B1C     		mov	r3, r7
 663 0046 2433     		add	r3, r3, #36
 664 0048 1A80     		strh	r2, [r3]
 190:.\main.c      ****     
 191:.\main.c      ****     //Samler most significant og least significant for Z
 192:.\main.c      ****     z = sensArray[5][2]<< 8; 
 665              		.loc 1 192 0
 666 004a 144B     		ldr	r3, .L26
 667 004c 5B6C     		ldr	r3, [r3, #68]
 668 004e 1A02     		lsl	r2, r3, #8
 669 0050 3B1C     		mov	r3, r7
 670 0052 2233     		add	r3, r3, #34
 671 0054 1A80     		strh	r2, [r3]
 193:.\main.c      ****     z+= sensArray[4][2];
 672              		.loc 1 193 0
 673 0056 114B     		ldr	r3, .L26
 674 0058 9B6B     		ldr	r3, [r3, #56]
 675 005a 9AB2     		uxth	r2, r3
 676 005c 3B1C     		mov	r3, r7
 677 005e 2233     		add	r3, r3, #34
 678 0060 1B88     		ldrh	r3, [r3]
 679 0062 D318     		add	r3, r2, r3
 680 0064 9AB2     		uxth	r2, r3
 681 0066 3B1C     		mov	r3, r7
 682 0068 2233     		add	r3, r3, #34
 683 006a 1A80     		strh	r2, [r3]
 194:.\main.c      ****     
 195:.\main.c      ****     char ADXL345_data[32];
 196:.\main.c      ****     sprintf(ADXL345_data, "x is: %d, y is: %d, z is: %d\n\r", x, y, z);
 684              		.loc 1 196 0
 685 006c 3B1C     		mov	r3, r7
 686 006e 2633     		add	r3, r3, #38
 687 0070 0020     		mov	r0, #0
 688 0072 1A5E     		ldrsh	r2, [r3, r0]
 689 0074 3B1C     		mov	r3, r7
 690 0076 2433     		add	r3, r3, #36
 691 0078 0021     		mov	r1, #0
 692 007a 5B5E     		ldrsh	r3, [r3, r1]
 693 007c 391C     		mov	r1, r7
 694 007e 2231     		add	r1, r1, #34
 695 0080 0020     		mov	r0, #0
 696 0082 0C5E     		ldrsh	r4, [r1, r0]
 697 0084 381C     		mov	r0, r7
 698 0086 0649     		ldr	r1, .L26+4
 699 0088 0094     		str	r4, [sp]
 700 008a FFF7FEFF 		bl	sprintf
ARM GAS  C:\Users\Kristian\AppData\Local\Temp\cc9TaLEy.s 			page 17


 197:.\main.c      ****     UART_1_UartPutString(ADXL345_data); 
 701              		.loc 1 197 0
 702 008e 3B1C     		mov	r3, r7
 703 0090 181C     		mov	r0, r3
 704 0092 FFF7FEFF 		bl	UART_1_UartPutString
 198:.\main.c      **** }
 705              		.loc 1 198 0
 706 0096 BD46     		mov	sp, r7
 707 0098 0BB0     		add	sp, sp, #44
 708              		@ sp needed for prologue
 709 009a 90BD     		pop	{r4, r7, pc}
 710              	.L27:
 711              		.align	2
 712              	.L26:
 713 009c 00000000 		.word	sensArray
 714 00a0 28000000 		.word	.LC11
 715              		.cfi_endproc
 716              	.LFE41:
 717              		.size	convSensData, .-convSensData
 718              		.section	.rodata
 719 0047 00       		.align	2
 720              	.LC13:
 721 0048 54686973 		.ascii	"This is a a test of body main\012\015\012\000"
 721      20697320 
 721      61206120 
 721      74657374 
 721      206F6620 
 722 0069 000000   		.section	.text.initUART,"ax",%progbits
 723              		.align	2
 724              		.global	initUART
 725              		.code	16
 726              		.thumb_func
 727              		.type	initUART, %function
 728              	initUART:
 729              	.LFB42:
 199:.\main.c      ****     
 200:.\main.c      **** 
 201:.\main.c      **** //til test UART
 202:.\main.c      **** void initUART()
 203:.\main.c      **** {
 730              		.loc 1 203 0
 731              		.cfi_startproc
 732 0000 80B5     		push	{r7, lr}
 733              	.LCFI23:
 734              		.cfi_def_cfa_offset 8
 735              		.cfi_offset 7, -8
 736              		.cfi_offset 14, -4
 737 0002 00AF     		add	r7, sp, #0
 738              	.LCFI24:
 739              		.cfi_def_cfa_register 7
 204:.\main.c      ****     UART_1_Start();
 740              		.loc 1 204 0
 741 0004 FFF7FEFF 		bl	UART_1_Start
 205:.\main.c      ****     UART_1_UartPutString("This is a a test of body main\n\r\n");
 742              		.loc 1 205 0
 743 0008 024B     		ldr	r3, .L29
 744 000a 181C     		mov	r0, r3
ARM GAS  C:\Users\Kristian\AppData\Local\Temp\cc9TaLEy.s 			page 18


 745 000c FFF7FEFF 		bl	UART_1_UartPutString
 206:.\main.c      **** }
 746              		.loc 1 206 0
 747 0010 BD46     		mov	sp, r7
 748              		@ sp needed for prologue
 749 0012 80BD     		pop	{r7, pc}
 750              	.L30:
 751              		.align	2
 752              	.L29:
 753 0014 48000000 		.word	.LC13
 754              		.cfi_endproc
 755              	.LFE42:
 756              		.size	initUART, .-initUART
 757              		.section	.text.handleI2CError,"ax",%progbits
 758              		.align	2
 759              		.global	handleI2CError
 760              		.code	16
 761              		.thumb_func
 762              		.type	handleI2CError, %function
 763              	handleI2CError:
 764              	.LFB43:
 207:.\main.c      **** 
 208:.\main.c      **** void handleI2CError()
 209:.\main.c      **** {
 765              		.loc 1 209 0
 766              		.cfi_startproc
 767 0000 80B5     		push	{r7, lr}
 768              	.LCFI25:
 769              		.cfi_def_cfa_offset 8
 770              		.cfi_offset 7, -8
 771              		.cfi_offset 14, -4
 772 0002 00AF     		add	r7, sp, #0
 773              	.LCFI26:
 774              		.cfi_def_cfa_register 7
 210:.\main.c      ****     I2C_1_I2CMasterSendStop();	 
 775              		.loc 1 210 0
 776 0004 FFF7FEFF 		bl	I2C_1_I2CMasterSendStop
 211:.\main.c      **** }
 777              		.loc 1 211 0
 778 0008 BD46     		mov	sp, r7
 779              		@ sp needed for prologue
 780 000a 80BD     		pop	{r7, pc}
 781              		.cfi_endproc
 782              	.LFE43:
 783              		.size	handleI2CError, .-handleI2CError
 784              		.text
 785              	.Letext0:
 786              		.file 2 "c:\\program files (x86)\\cypress\\psoc creator\\3.0\\psoc creator\\import\\gnu_cs\\arm\\4
 787              		.file 3 "./Generated_Source/PSoC4/cytypes.h"