ARM GAS  C:\Users\Felix\AppData\Local\Temp\ccY0WrHG.s 			page 1


   1              		.cpu cortex-m0
   2              		.fpu softvfp
   3              		.eabi_attribute 20, 1
   4              		.eabi_attribute 21, 1
   5              		.eabi_attribute 23, 3
   6              		.eabi_attribute 24, 1
   7              		.eabi_attribute 25, 1
   8              		.eabi_attribute 26, 1
   9              		.eabi_attribute 30, 6
  10              		.eabi_attribute 34, 0
  11              		.eabi_attribute 18, 4
  12              		.code	16
  13              		.file	"ButtonMatrix01_1_API.c"
  14              		.text
  15              	.Ltext0:
  16              		.cfi_sections	.debug_frame
  17              		.global	ButtonMatrix01_1_keyStates
  18              		.bss
  19              		.align	2
  20              		.type	ButtonMatrix01_1_keyStates, %object
  21              		.size	ButtonMatrix01_1_keyStates, 12
  22              	ButtonMatrix01_1_keyStates:
  23 0000 00000000 		.space	12
  23      00000000 
  23      00000000 
  24              		.section	.text.ButtonMatrix01_1_Start,"ax",%progbits
  25              		.align	2
  26              		.global	ButtonMatrix01_1_Start
  27              		.code	16
  28              		.thumb_func
  29              		.type	ButtonMatrix01_1_Start, %function
  30              	ButtonMatrix01_1_Start:
  31              	.LFB0:
  32              		.file 1 ".\\Generated_Source\\PSoC4\\ButtonMatrix01_1_API.c"
   1:.\Generated_Source\PSoC4/ButtonMatrix01_1_API.c **** /* ========================================
   2:.\Generated_Source\PSoC4/ButtonMatrix01_1_API.c ****  *
   3:.\Generated_Source\PSoC4/ButtonMatrix01_1_API.c ****  * This file holds the implementation of
   4:.\Generated_Source\PSoC4/ButtonMatrix01_1_API.c ****  * the ButtonMatrix API
   5:.\Generated_Source\PSoC4/ButtonMatrix01_1_API.c ****  *
   6:.\Generated_Source\PSoC4/ButtonMatrix01_1_API.c ****  * ========================================
   7:.\Generated_Source\PSoC4/ButtonMatrix01_1_API.c **** */
   8:.\Generated_Source\PSoC4/ButtonMatrix01_1_API.c **** 
   9:.\Generated_Source\PSoC4/ButtonMatrix01_1_API.c **** #include "ButtonMatrix01_1_API.h"
  10:.\Generated_Source\PSoC4/ButtonMatrix01_1_API.c **** 
  11:.\Generated_Source\PSoC4/ButtonMatrix01_1_API.c **** uint8_t ButtonMatrix01_1_keyStates[4][3] = 
  12:.\Generated_Source\PSoC4/ButtonMatrix01_1_API.c **** {
  13:.\Generated_Source\PSoC4/ButtonMatrix01_1_API.c ****     {0, 0, 0},
  14:.\Generated_Source\PSoC4/ButtonMatrix01_1_API.c ****     {0, 0, 0},
  15:.\Generated_Source\PSoC4/ButtonMatrix01_1_API.c ****     {0, 0, 0},
  16:.\Generated_Source\PSoC4/ButtonMatrix01_1_API.c ****     {0, 0, 0}
  17:.\Generated_Source\PSoC4/ButtonMatrix01_1_API.c **** };
  18:.\Generated_Source\PSoC4/ButtonMatrix01_1_API.c **** 
  19:.\Generated_Source\PSoC4/ButtonMatrix01_1_API.c **** CY_ISR_PROTO(ButtonMatrix01_1_ColumnAISR);
  20:.\Generated_Source\PSoC4/ButtonMatrix01_1_API.c **** CY_ISR_PROTO(ButtonMatrix01_1_ColumnBISR);
  21:.\Generated_Source\PSoC4/ButtonMatrix01_1_API.c **** CY_ISR_PROTO(ButtonMatrix01_1_ColumnCISR);
  22:.\Generated_Source\PSoC4/ButtonMatrix01_1_API.c **** 
  23:.\Generated_Source\PSoC4/ButtonMatrix01_1_API.c **** //control functions:
ARM GAS  C:\Users\Felix\AppData\Local\Temp\ccY0WrHG.s 			page 2


  24:.\Generated_Source\PSoC4/ButtonMatrix01_1_API.c **** void ButtonMatrix01_1_Start(void)
  25:.\Generated_Source\PSoC4/ButtonMatrix01_1_API.c **** {
  33              		.loc 1 25 0
  34              		.cfi_startproc
  35 0000 80B5     		push	{r7, lr}
  36              	.LCFI0:
  37              		.cfi_def_cfa_offset 8
  38              		.cfi_offset 7, -8
  39              		.cfi_offset 14, -4
  40 0002 00AF     		add	r7, sp, #0
  41              	.LCFI1:
  42              		.cfi_def_cfa_register 7
  26:.\Generated_Source\PSoC4/ButtonMatrix01_1_API.c ****     ButtonMatrix01_1_ISR_A_StartEx(ButtonMatrix01_1_ColumnAISR);
  43              		.loc 1 26 0
  44 0004 064B     		ldr	r3, .L2
  45 0006 181C     		mov	r0, r3
  46 0008 FFF7FEFF 		bl	ButtonMatrix01_1_ISR_A_StartEx
  27:.\Generated_Source\PSoC4/ButtonMatrix01_1_API.c ****     ButtonMatrix01_1_ISR_B_StartEx(ButtonMatrix01_1_ColumnBISR);
  47              		.loc 1 27 0
  48 000c 054B     		ldr	r3, .L2+4
  49 000e 181C     		mov	r0, r3
  50 0010 FFF7FEFF 		bl	ButtonMatrix01_1_ISR_B_StartEx
  28:.\Generated_Source\PSoC4/ButtonMatrix01_1_API.c ****     ButtonMatrix01_1_ISR_C_StartEx(ButtonMatrix01_1_ColumnCISR);
  51              		.loc 1 28 0
  52 0014 044B     		ldr	r3, .L2+8
  53 0016 181C     		mov	r0, r3
  54 0018 FFF7FEFF 		bl	ButtonMatrix01_1_ISR_C_StartEx
  29:.\Generated_Source\PSoC4/ButtonMatrix01_1_API.c **** }
  55              		.loc 1 29 0
  56 001c BD46     		mov	sp, r7
  57              		@ sp needed for prologue
  58 001e 80BD     		pop	{r7, pc}
  59              	.L3:
  60              		.align	2
  61              	.L2:
  62 0020 00000000 		.word	ButtonMatrix01_1_ColumnAISR
  63 0024 00000000 		.word	ButtonMatrix01_1_ColumnBISR
  64 0028 00000000 		.word	ButtonMatrix01_1_ColumnCISR
  65              		.cfi_endproc
  66              	.LFE0:
  67              		.size	ButtonMatrix01_1_Start, .-ButtonMatrix01_1_Start
  68              		.section	.text.ButtonMatrix01_1_Stop,"ax",%progbits
  69              		.align	2
  70              		.global	ButtonMatrix01_1_Stop
  71              		.code	16
  72              		.thumb_func
  73              		.type	ButtonMatrix01_1_Stop, %function
  74              	ButtonMatrix01_1_Stop:
  75              	.LFB1:
  30:.\Generated_Source\PSoC4/ButtonMatrix01_1_API.c **** void ButtonMatrix01_1_Stop(void)
  31:.\Generated_Source\PSoC4/ButtonMatrix01_1_API.c **** {
  76              		.loc 1 31 0
  77              		.cfi_startproc
  78 0000 80B5     		push	{r7, lr}
  79              	.LCFI2:
  80              		.cfi_def_cfa_offset 8
  81              		.cfi_offset 7, -8
ARM GAS  C:\Users\Felix\AppData\Local\Temp\ccY0WrHG.s 			page 3


  82              		.cfi_offset 14, -4
  83 0002 00AF     		add	r7, sp, #0
  84              	.LCFI3:
  85              		.cfi_def_cfa_register 7
  32:.\Generated_Source\PSoC4/ButtonMatrix01_1_API.c ****     ButtonMatrix01_1_ISR_A_Stop();
  86              		.loc 1 32 0
  87 0004 FFF7FEFF 		bl	ButtonMatrix01_1_ISR_A_Stop
  33:.\Generated_Source\PSoC4/ButtonMatrix01_1_API.c ****     ButtonMatrix01_1_ISR_B_Stop();
  88              		.loc 1 33 0
  89 0008 FFF7FEFF 		bl	ButtonMatrix01_1_ISR_B_Stop
  34:.\Generated_Source\PSoC4/ButtonMatrix01_1_API.c ****     ButtonMatrix01_1_ISR_C_Stop();
  90              		.loc 1 34 0
  91 000c FFF7FEFF 		bl	ButtonMatrix01_1_ISR_C_Stop
  35:.\Generated_Source\PSoC4/ButtonMatrix01_1_API.c **** }
  92              		.loc 1 35 0
  93 0010 BD46     		mov	sp, r7
  94              		@ sp needed for prologue
  95 0012 80BD     		pop	{r7, pc}
  96              		.cfi_endproc
  97              	.LFE1:
  98              		.size	ButtonMatrix01_1_Stop, .-ButtonMatrix01_1_Stop
  99              		.section	.text.ButtonMatrix01_1_Enable,"ax",%progbits
 100              		.align	2
 101              		.global	ButtonMatrix01_1_Enable
 102              		.code	16
 103              		.thumb_func
 104              		.type	ButtonMatrix01_1_Enable, %function
 105              	ButtonMatrix01_1_Enable:
 106              	.LFB2:
  36:.\Generated_Source\PSoC4/ButtonMatrix01_1_API.c **** void ButtonMatrix01_1_Enable(void)
  37:.\Generated_Source\PSoC4/ButtonMatrix01_1_API.c **** {
 107              		.loc 1 37 0
 108              		.cfi_startproc
 109 0000 80B5     		push	{r7, lr}
 110              	.LCFI4:
 111              		.cfi_def_cfa_offset 8
 112              		.cfi_offset 7, -8
 113              		.cfi_offset 14, -4
 114 0002 00AF     		add	r7, sp, #0
 115              	.LCFI5:
 116              		.cfi_def_cfa_register 7
  38:.\Generated_Source\PSoC4/ButtonMatrix01_1_API.c ****     ButtonMatrix01_1_ISR_A_Enable();
 117              		.loc 1 38 0
 118 0004 FFF7FEFF 		bl	ButtonMatrix01_1_ISR_A_Enable
  39:.\Generated_Source\PSoC4/ButtonMatrix01_1_API.c ****     ButtonMatrix01_1_ISR_B_Enable();
 119              		.loc 1 39 0
 120 0008 FFF7FEFF 		bl	ButtonMatrix01_1_ISR_B_Enable
  40:.\Generated_Source\PSoC4/ButtonMatrix01_1_API.c ****     ButtonMatrix01_1_ISR_C_Enable();
 121              		.loc 1 40 0
 122 000c FFF7FEFF 		bl	ButtonMatrix01_1_ISR_C_Enable
  41:.\Generated_Source\PSoC4/ButtonMatrix01_1_API.c **** }
 123              		.loc 1 41 0
 124 0010 BD46     		mov	sp, r7
 125              		@ sp needed for prologue
 126 0012 80BD     		pop	{r7, pc}
 127              		.cfi_endproc
 128              	.LFE2:
ARM GAS  C:\Users\Felix\AppData\Local\Temp\ccY0WrHG.s 			page 4


 129              		.size	ButtonMatrix01_1_Enable, .-ButtonMatrix01_1_Enable
 130              		.section	.text.ButtonMatrix01_1_Disable,"ax",%progbits
 131              		.align	2
 132              		.global	ButtonMatrix01_1_Disable
 133              		.code	16
 134              		.thumb_func
 135              		.type	ButtonMatrix01_1_Disable, %function
 136              	ButtonMatrix01_1_Disable:
 137              	.LFB3:
  42:.\Generated_Source\PSoC4/ButtonMatrix01_1_API.c **** void ButtonMatrix01_1_Disable(void)
  43:.\Generated_Source\PSoC4/ButtonMatrix01_1_API.c **** {
 138              		.loc 1 43 0
 139              		.cfi_startproc
 140 0000 80B5     		push	{r7, lr}
 141              	.LCFI6:
 142              		.cfi_def_cfa_offset 8
 143              		.cfi_offset 7, -8
 144              		.cfi_offset 14, -4
 145 0002 00AF     		add	r7, sp, #0
 146              	.LCFI7:
 147              		.cfi_def_cfa_register 7
  44:.\Generated_Source\PSoC4/ButtonMatrix01_1_API.c ****     ButtonMatrix01_1_ISR_A_Disable();
 148              		.loc 1 44 0
 149 0004 FFF7FEFF 		bl	ButtonMatrix01_1_ISR_A_Disable
  45:.\Generated_Source\PSoC4/ButtonMatrix01_1_API.c ****     ButtonMatrix01_1_ISR_B_Disable();
 150              		.loc 1 45 0
 151 0008 FFF7FEFF 		bl	ButtonMatrix01_1_ISR_B_Disable
  46:.\Generated_Source\PSoC4/ButtonMatrix01_1_API.c ****     ButtonMatrix01_1_ISR_C_Disable();
 152              		.loc 1 46 0
 153 000c FFF7FEFF 		bl	ButtonMatrix01_1_ISR_C_Disable
  47:.\Generated_Source\PSoC4/ButtonMatrix01_1_API.c **** }
 154              		.loc 1 47 0
 155 0010 BD46     		mov	sp, r7
 156              		@ sp needed for prologue
 157 0012 80BD     		pop	{r7, pc}
 158              		.cfi_endproc
 159              	.LFE3:
 160              		.size	ButtonMatrix01_1_Disable, .-ButtonMatrix01_1_Disable
 161              		.global	__aeabi_uidiv
 162              		.global	__aeabi_uidivmod
 163              		.section	.text.ButtonMatrix01_1_IsButtonPressed,"ax",%progbits
 164              		.align	2
 165              		.global	ButtonMatrix01_1_IsButtonPressed
 166              		.code	16
 167              		.thumb_func
 168              		.type	ButtonMatrix01_1_IsButtonPressed, %function
 169              	ButtonMatrix01_1_IsButtonPressed:
 170              	.LFB4:
  48:.\Generated_Source\PSoC4/ButtonMatrix01_1_API.c **** 
  49:.\Generated_Source\PSoC4/ButtonMatrix01_1_API.c **** //probing functions:
  50:.\Generated_Source\PSoC4/ButtonMatrix01_1_API.c **** uint8_t ButtonMatrix01_1_IsButtonPressed(ButtonMatrix01_1_Key_t key)
  51:.\Generated_Source\PSoC4/ButtonMatrix01_1_API.c **** {
 171              		.loc 1 51 0
 172              		.cfi_startproc
 173 0000 90B5     		push	{r4, r7, lr}
 174              	.LCFI8:
 175              		.cfi_def_cfa_offset 12
ARM GAS  C:\Users\Felix\AppData\Local\Temp\ccY0WrHG.s 			page 5


 176              		.cfi_offset 4, -12
 177              		.cfi_offset 7, -8
 178              		.cfi_offset 14, -4
 179 0002 83B0     		sub	sp, sp, #12
 180              	.LCFI9:
 181              		.cfi_def_cfa_offset 24
 182 0004 00AF     		add	r7, sp, #0
 183              	.LCFI10:
 184              		.cfi_def_cfa_register 7
 185 0006 021C     		mov	r2, r0
 186 0008 FB1D     		add	r3, r7, #7
 187 000a 1A70     		strb	r2, [r3]
  52:.\Generated_Source\PSoC4/ButtonMatrix01_1_API.c ****     return ButtonMatrix01_1_keyStates[key / 3][key % 3];
 188              		.loc 1 52 0
 189 000c FB1D     		add	r3, r7, #7
 190 000e 1B78     		ldrb	r3, [r3]
 191 0010 181C     		mov	r0, r3
 192 0012 0321     		mov	r1, #3
 193 0014 FFF7FEFF 		bl	__aeabi_uidiv
 194 0018 031C     		mov	r3, r0
 195 001a DBB2     		uxtb	r3, r3
 196 001c 1C1C     		mov	r4, r3
 197 001e FB1D     		add	r3, r7, #7
 198 0020 1B78     		ldrb	r3, [r3]
 199 0022 181C     		mov	r0, r3
 200 0024 0321     		mov	r1, #3
 201 0026 FFF7FEFF 		bl	__aeabi_uidivmod
 202 002a 0B1C     		mov	r3, r1
 203 002c DBB2     		uxtb	r3, r3
 204 002e 191C     		mov	r1, r3
 205 0030 044A     		ldr	r2, .L9
 206 0032 231C     		mov	r3, r4
 207 0034 5B00     		lsl	r3, r3, #1
 208 0036 1B19     		add	r3, r3, r4
 209 0038 5B18     		add	r3, r3, r1
 210 003a 9B5C     		ldrb	r3, [r3, r2]
  53:.\Generated_Source\PSoC4/ButtonMatrix01_1_API.c **** }
 211              		.loc 1 53 0
 212 003c 181C     		mov	r0, r3
 213 003e BD46     		mov	sp, r7
 214 0040 03B0     		add	sp, sp, #12
 215              		@ sp needed for prologue
 216 0042 90BD     		pop	{r4, r7, pc}
 217              	.L10:
 218              		.align	2
 219              	.L9:
 220 0044 00000000 		.word	ButtonMatrix01_1_keyStates
 221              		.cfi_endproc
 222              	.LFE4:
 223              		.size	ButtonMatrix01_1_IsButtonPressed, .-ButtonMatrix01_1_IsButtonPressed
 224              		.section	.text.ButtonMatrix01_1_IsButtonReleased,"ax",%progbits
 225              		.align	2
 226              		.global	ButtonMatrix01_1_IsButtonReleased
 227              		.code	16
 228              		.thumb_func
 229              		.type	ButtonMatrix01_1_IsButtonReleased, %function
 230              	ButtonMatrix01_1_IsButtonReleased:
ARM GAS  C:\Users\Felix\AppData\Local\Temp\ccY0WrHG.s 			page 6


 231              	.LFB5:
  54:.\Generated_Source\PSoC4/ButtonMatrix01_1_API.c **** 
  55:.\Generated_Source\PSoC4/ButtonMatrix01_1_API.c **** uint8_t ButtonMatrix01_1_IsButtonReleased(ButtonMatrix01_1_Key_t key)
  56:.\Generated_Source\PSoC4/ButtonMatrix01_1_API.c **** {
 232              		.loc 1 56 0
 233              		.cfi_startproc
 234 0000 90B5     		push	{r4, r7, lr}
 235              	.LCFI11:
 236              		.cfi_def_cfa_offset 12
 237              		.cfi_offset 4, -12
 238              		.cfi_offset 7, -8
 239              		.cfi_offset 14, -4
 240 0002 83B0     		sub	sp, sp, #12
 241              	.LCFI12:
 242              		.cfi_def_cfa_offset 24
 243 0004 00AF     		add	r7, sp, #0
 244              	.LCFI13:
 245              		.cfi_def_cfa_register 7
 246 0006 021C     		mov	r2, r0
 247 0008 FB1D     		add	r3, r7, #7
 248 000a 1A70     		strb	r2, [r3]
  57:.\Generated_Source\PSoC4/ButtonMatrix01_1_API.c ****      return !ButtonMatrix01_1_keyStates[key / 3][key % 3];
 249              		.loc 1 57 0
 250 000c FB1D     		add	r3, r7, #7
 251 000e 1B78     		ldrb	r3, [r3]
 252 0010 181C     		mov	r0, r3
 253 0012 0321     		mov	r1, #3
 254 0014 FFF7FEFF 		bl	__aeabi_uidiv
 255 0018 031C     		mov	r3, r0
 256 001a DBB2     		uxtb	r3, r3
 257 001c 1C1C     		mov	r4, r3
 258 001e FB1D     		add	r3, r7, #7
 259 0020 1B78     		ldrb	r3, [r3]
 260 0022 181C     		mov	r0, r3
 261 0024 0321     		mov	r1, #3
 262 0026 FFF7FEFF 		bl	__aeabi_uidivmod
 263 002a 0B1C     		mov	r3, r1
 264 002c DBB2     		uxtb	r3, r3
 265 002e 191C     		mov	r1, r3
 266 0030 064A     		ldr	r2, .L13
 267 0032 231C     		mov	r3, r4
 268 0034 5B00     		lsl	r3, r3, #1
 269 0036 1B19     		add	r3, r3, r4
 270 0038 5B18     		add	r3, r3, r1
 271 003a 9B5C     		ldrb	r3, [r3, r2]
 272 003c 5A42     		neg	r2, r3
 273 003e 5341     		adc	r3, r3, r2
 274 0040 DBB2     		uxtb	r3, r3
  58:.\Generated_Source\PSoC4/ButtonMatrix01_1_API.c **** }
 275              		.loc 1 58 0
 276 0042 181C     		mov	r0, r3
 277 0044 BD46     		mov	sp, r7
 278 0046 03B0     		add	sp, sp, #12
 279              		@ sp needed for prologue
 280 0048 90BD     		pop	{r4, r7, pc}
 281              	.L14:
 282 004a C046     		.align	2
ARM GAS  C:\Users\Felix\AppData\Local\Temp\ccY0WrHG.s 			page 7


 283              	.L13:
 284 004c 00000000 		.word	ButtonMatrix01_1_keyStates
 285              		.cfi_endproc
 286              	.LFE5:
 287              		.size	ButtonMatrix01_1_IsButtonReleased, .-ButtonMatrix01_1_IsButtonReleased
 288              		.section	.text.ButtonMatrix01_1_GetKeyState,"ax",%progbits
 289              		.align	2
 290              		.global	ButtonMatrix01_1_GetKeyState
 291              		.code	16
 292              		.thumb_func
 293              		.type	ButtonMatrix01_1_GetKeyState, %function
 294              	ButtonMatrix01_1_GetKeyState:
 295              	.LFB6:
  59:.\Generated_Source\PSoC4/ButtonMatrix01_1_API.c **** 
  60:.\Generated_Source\PSoC4/ButtonMatrix01_1_API.c **** ButtonMatrix01_1_KeyState_t ButtonMatrix01_1_GetKeyState(ButtonMatrix01_1_Key_t key)
  61:.\Generated_Source\PSoC4/ButtonMatrix01_1_API.c **** {
 296              		.loc 1 61 0
 297              		.cfi_startproc
 298 0000 90B5     		push	{r4, r7, lr}
 299              	.LCFI14:
 300              		.cfi_def_cfa_offset 12
 301              		.cfi_offset 4, -12
 302              		.cfi_offset 7, -8
 303              		.cfi_offset 14, -4
 304 0002 83B0     		sub	sp, sp, #12
 305              	.LCFI15:
 306              		.cfi_def_cfa_offset 24
 307 0004 00AF     		add	r7, sp, #0
 308              	.LCFI16:
 309              		.cfi_def_cfa_register 7
 310 0006 021C     		mov	r2, r0
 311 0008 FB1D     		add	r3, r7, #7
 312 000a 1A70     		strb	r2, [r3]
  62:.\Generated_Source\PSoC4/ButtonMatrix01_1_API.c ****     if(ButtonMatrix01_1_keyStates[key / 3][key % 3]) return KEY_PRESSED;
 313              		.loc 1 62 0
 314 000c FB1D     		add	r3, r7, #7
 315 000e 1B78     		ldrb	r3, [r3]
 316 0010 181C     		mov	r0, r3
 317 0012 0321     		mov	r1, #3
 318 0014 FFF7FEFF 		bl	__aeabi_uidiv
 319 0018 031C     		mov	r3, r0
 320 001a DBB2     		uxtb	r3, r3
 321 001c 1C1C     		mov	r4, r3
 322 001e FB1D     		add	r3, r7, #7
 323 0020 1B78     		ldrb	r3, [r3]
 324 0022 181C     		mov	r0, r3
 325 0024 0321     		mov	r1, #3
 326 0026 FFF7FEFF 		bl	__aeabi_uidivmod
 327 002a 0B1C     		mov	r3, r1
 328 002c DBB2     		uxtb	r3, r3
 329 002e 191C     		mov	r1, r3
 330 0030 074A     		ldr	r2, .L18
 331 0032 231C     		mov	r3, r4
 332 0034 5B00     		lsl	r3, r3, #1
 333 0036 1B19     		add	r3, r3, r4
 334 0038 5B18     		add	r3, r3, r1
 335 003a 9B5C     		ldrb	r3, [r3, r2]
ARM GAS  C:\Users\Felix\AppData\Local\Temp\ccY0WrHG.s 			page 8


 336 003c 002B     		cmp	r3, #0
 337 003e 01D0     		beq	.L16
 338              		.loc 1 62 0 is_stmt 0 discriminator 1
 339 0040 0023     		mov	r3, #0
 340 0042 00E0     		b	.L17
 341              	.L16:
  63:.\Generated_Source\PSoC4/ButtonMatrix01_1_API.c ****     else return KEY_RELEASED;
 342              		.loc 1 63 0 is_stmt 1
 343 0044 0123     		mov	r3, #1
 344              	.L17:
  64:.\Generated_Source\PSoC4/ButtonMatrix01_1_API.c **** }
 345              		.loc 1 64 0
 346 0046 181C     		mov	r0, r3
 347 0048 BD46     		mov	sp, r7
 348 004a 03B0     		add	sp, sp, #12
 349              		@ sp needed for prologue
 350 004c 90BD     		pop	{r4, r7, pc}
 351              	.L19:
 352 004e C046     		.align	2
 353              	.L18:
 354 0050 00000000 		.word	ButtonMatrix01_1_keyStates
 355              		.cfi_endproc
 356              	.LFE6:
 357              		.size	ButtonMatrix01_1_GetKeyState, .-ButtonMatrix01_1_GetKeyState
 358              		.section	.text.ButtonMatrix01_1_readColumn,"ax",%progbits
 359              		.align	2
 360              		.global	ButtonMatrix01_1_readColumn
 361              		.code	16
 362              		.thumb_func
 363              		.type	ButtonMatrix01_1_readColumn, %function
 364              	ButtonMatrix01_1_readColumn:
 365              	.LFB7:
  65:.\Generated_Source\PSoC4/ButtonMatrix01_1_API.c **** 
  66:.\Generated_Source\PSoC4/ButtonMatrix01_1_API.c **** //ISR functionality 
  67:.\Generated_Source\PSoC4/ButtonMatrix01_1_API.c **** uint8_t ButtonMatrix01_1_readColumn(uint8_t column)
  68:.\Generated_Source\PSoC4/ButtonMatrix01_1_API.c **** {
 366              		.loc 1 68 0
 367              		.cfi_startproc
 368 0000 80B5     		push	{r7, lr}
 369              	.LCFI17:
 370              		.cfi_def_cfa_offset 8
 371              		.cfi_offset 7, -8
 372              		.cfi_offset 14, -4
 373 0002 82B0     		sub	sp, sp, #8
 374              	.LCFI18:
 375              		.cfi_def_cfa_offset 16
 376 0004 00AF     		add	r7, sp, #0
 377              	.LCFI19:
 378              		.cfi_def_cfa_register 7
 379 0006 021C     		mov	r2, r0
 380 0008 FB1D     		add	r3, r7, #7
 381 000a 1A70     		strb	r2, [r3]
  69:.\Generated_Source\PSoC4/ButtonMatrix01_1_API.c ****     switch(column)
 382              		.loc 1 69 0
 383 000c FB1D     		add	r3, r7, #7
 384 000e 1B78     		ldrb	r3, [r3]
 385 0010 012B     		cmp	r3, #1
ARM GAS  C:\Users\Felix\AppData\Local\Temp\ccY0WrHG.s 			page 9


 386 0012 07D0     		beq	.L23
 387 0014 022B     		cmp	r3, #2
 388 0016 09D0     		beq	.L24
 389 0018 002B     		cmp	r3, #0
 390 001a 0BD1     		bne	.L26
 391              	.L22:
  70:.\Generated_Source\PSoC4/ButtonMatrix01_1_API.c ****     {
  71:.\Generated_Source\PSoC4/ButtonMatrix01_1_API.c ****         case 0:
  72:.\Generated_Source\PSoC4/ButtonMatrix01_1_API.c ****             return ButtonMatrix01_1_BM_A_Read();
 392              		.loc 1 72 0
 393 001c FFF7FEFF 		bl	ButtonMatrix01_1_BM_A_Read
 394 0020 031C     		mov	r3, r0
 395 0022 08E0     		b	.L25
 396              	.L23:
  73:.\Generated_Source\PSoC4/ButtonMatrix01_1_API.c ****         case 1:
  74:.\Generated_Source\PSoC4/ButtonMatrix01_1_API.c ****             return ButtonMatrix01_1_BM_B_Read();
 397              		.loc 1 74 0
 398 0024 FFF7FEFF 		bl	ButtonMatrix01_1_BM_B_Read
 399 0028 031C     		mov	r3, r0
 400 002a 04E0     		b	.L25
 401              	.L24:
  75:.\Generated_Source\PSoC4/ButtonMatrix01_1_API.c ****         case 2:
  76:.\Generated_Source\PSoC4/ButtonMatrix01_1_API.c ****             return ButtonMatrix01_1_BM_C_Read();
 402              		.loc 1 76 0
 403 002c FFF7FEFF 		bl	ButtonMatrix01_1_BM_C_Read
 404 0030 031C     		mov	r3, r0
 405 0032 00E0     		b	.L25
 406              	.L26:
  77:.\Generated_Source\PSoC4/ButtonMatrix01_1_API.c ****         default:
  78:.\Generated_Source\PSoC4/ButtonMatrix01_1_API.c ****             return -1;
 407              		.loc 1 78 0
 408 0034 FF23     		mov	r3, #255
 409              	.L25:
  79:.\Generated_Source\PSoC4/ButtonMatrix01_1_API.c ****     }
  80:.\Generated_Source\PSoC4/ButtonMatrix01_1_API.c **** }
 410              		.loc 1 80 0
 411 0036 181C     		mov	r0, r3
 412 0038 BD46     		mov	sp, r7
 413 003a 02B0     		add	sp, sp, #8
 414              		@ sp needed for prologue
 415 003c 80BD     		pop	{r7, pc}
 416              		.cfi_endproc
 417              	.LFE7:
 418              		.size	ButtonMatrix01_1_readColumn, .-ButtonMatrix01_1_readColumn
 419 003e C046     		.section	.text.ButtonMatrix01_1_scanForRow,"ax",%progbits
 420              		.align	2
 421              		.global	ButtonMatrix01_1_scanForRow
 422              		.code	16
 423              		.thumb_func
 424              		.type	ButtonMatrix01_1_scanForRow, %function
 425              	ButtonMatrix01_1_scanForRow:
 426              	.LFB8:
  81:.\Generated_Source\PSoC4/ButtonMatrix01_1_API.c **** 
  82:.\Generated_Source\PSoC4/ButtonMatrix01_1_API.c **** uint8_t ButtonMatrix01_1_scanForRow(uint8_t column)
  83:.\Generated_Source\PSoC4/ButtonMatrix01_1_API.c **** {
 427              		.loc 1 83 0
 428              		.cfi_startproc
ARM GAS  C:\Users\Felix\AppData\Local\Temp\ccY0WrHG.s 			page 10


 429 0000 80B5     		push	{r7, lr}
 430              	.LCFI20:
 431              		.cfi_def_cfa_offset 8
 432              		.cfi_offset 7, -8
 433              		.cfi_offset 14, -4
 434 0002 84B0     		sub	sp, sp, #16
 435              	.LCFI21:
 436              		.cfi_def_cfa_offset 24
 437 0004 00AF     		add	r7, sp, #0
 438              	.LCFI22:
 439              		.cfi_def_cfa_register 7
 440 0006 021C     		mov	r2, r0
 441 0008 FB1D     		add	r3, r7, #7
 442 000a 1A70     		strb	r2, [r3]
  84:.\Generated_Source\PSoC4/ButtonMatrix01_1_API.c ****     uint8_t row = 0;
 443              		.loc 1 84 0
 444 000c 3B1C     		mov	r3, r7
 445 000e 0F33     		add	r3, r3, #15
 446 0010 0022     		mov	r2, #0
 447 0012 1A70     		strb	r2, [r3]
  85:.\Generated_Source\PSoC4/ButtonMatrix01_1_API.c ****     
  86:.\Generated_Source\PSoC4/ButtonMatrix01_1_API.c ****     ButtonMatrix01_1_Disable();
 448              		.loc 1 86 0
 449 0014 FFF7FEFF 		bl	ButtonMatrix01_1_Disable
  87:.\Generated_Source\PSoC4/ButtonMatrix01_1_API.c ****     ButtonMatrix01_1_BM_1_Write(1);
 450              		.loc 1 87 0
 451 0018 0120     		mov	r0, #1
 452 001a FFF7FEFF 		bl	ButtonMatrix01_1_BM_1_Write
  88:.\Generated_Source\PSoC4/ButtonMatrix01_1_API.c ****     if(ButtonMatrix01_1_readColumn(column)) row = 0;
 453              		.loc 1 88 0
 454 001e FB1D     		add	r3, r7, #7
 455 0020 1B78     		ldrb	r3, [r3]
 456 0022 181C     		mov	r0, r3
 457 0024 FFF7FEFF 		bl	ButtonMatrix01_1_readColumn
 458 0028 031C     		mov	r3, r0
 459 002a 002B     		cmp	r3, #0
 460 002c 03D0     		beq	.L28
 461              		.loc 1 88 0 is_stmt 0 discriminator 1
 462 002e 3B1C     		mov	r3, r7
 463 0030 0F33     		add	r3, r3, #15
 464 0032 0022     		mov	r2, #0
 465 0034 1A70     		strb	r2, [r3]
 466              	.L28:
  89:.\Generated_Source\PSoC4/ButtonMatrix01_1_API.c ****     ButtonMatrix01_1_BM_1_Write(0);
 467              		.loc 1 89 0 is_stmt 1
 468 0036 0020     		mov	r0, #0
 469 0038 FFF7FEFF 		bl	ButtonMatrix01_1_BM_1_Write
  90:.\Generated_Source\PSoC4/ButtonMatrix01_1_API.c ****     
  91:.\Generated_Source\PSoC4/ButtonMatrix01_1_API.c ****     ButtonMatrix01_1_BM_2_Write(1);
 470              		.loc 1 91 0
 471 003c 0120     		mov	r0, #1
 472 003e FFF7FEFF 		bl	ButtonMatrix01_1_BM_2_Write
  92:.\Generated_Source\PSoC4/ButtonMatrix01_1_API.c ****     if(ButtonMatrix01_1_readColumn(column)) row = 1;
 473              		.loc 1 92 0
 474 0042 FB1D     		add	r3, r7, #7
 475 0044 1B78     		ldrb	r3, [r3]
 476 0046 181C     		mov	r0, r3
ARM GAS  C:\Users\Felix\AppData\Local\Temp\ccY0WrHG.s 			page 11


 477 0048 FFF7FEFF 		bl	ButtonMatrix01_1_readColumn
 478 004c 031C     		mov	r3, r0
 479 004e 002B     		cmp	r3, #0
 480 0050 03D0     		beq	.L29
 481              		.loc 1 92 0 is_stmt 0 discriminator 1
 482 0052 3B1C     		mov	r3, r7
 483 0054 0F33     		add	r3, r3, #15
 484 0056 0122     		mov	r2, #1
 485 0058 1A70     		strb	r2, [r3]
 486              	.L29:
  93:.\Generated_Source\PSoC4/ButtonMatrix01_1_API.c ****     ButtonMatrix01_1_BM_2_Write(0);
 487              		.loc 1 93 0 is_stmt 1
 488 005a 0020     		mov	r0, #0
 489 005c FFF7FEFF 		bl	ButtonMatrix01_1_BM_2_Write
  94:.\Generated_Source\PSoC4/ButtonMatrix01_1_API.c ****     
  95:.\Generated_Source\PSoC4/ButtonMatrix01_1_API.c ****     ButtonMatrix01_1_BM_3_Write(1);
 490              		.loc 1 95 0
 491 0060 0120     		mov	r0, #1
 492 0062 FFF7FEFF 		bl	ButtonMatrix01_1_BM_3_Write
  96:.\Generated_Source\PSoC4/ButtonMatrix01_1_API.c ****     if(ButtonMatrix01_1_readColumn(column)) row = 2;
 493              		.loc 1 96 0
 494 0066 FB1D     		add	r3, r7, #7
 495 0068 1B78     		ldrb	r3, [r3]
 496 006a 181C     		mov	r0, r3
 497 006c FFF7FEFF 		bl	ButtonMatrix01_1_readColumn
 498 0070 031C     		mov	r3, r0
 499 0072 002B     		cmp	r3, #0
 500 0074 03D0     		beq	.L30
 501              		.loc 1 96 0 is_stmt 0 discriminator 1
 502 0076 3B1C     		mov	r3, r7
 503 0078 0F33     		add	r3, r3, #15
 504 007a 0222     		mov	r2, #2
 505 007c 1A70     		strb	r2, [r3]
 506              	.L30:
  97:.\Generated_Source\PSoC4/ButtonMatrix01_1_API.c ****     ButtonMatrix01_1_BM_3_Write(0);
 507              		.loc 1 97 0 is_stmt 1
 508 007e 0020     		mov	r0, #0
 509 0080 FFF7FEFF 		bl	ButtonMatrix01_1_BM_3_Write
  98:.\Generated_Source\PSoC4/ButtonMatrix01_1_API.c ****     
  99:.\Generated_Source\PSoC4/ButtonMatrix01_1_API.c ****     ButtonMatrix01_1_BM_4_Write(1);
 510              		.loc 1 99 0
 511 0084 0120     		mov	r0, #1
 512 0086 FFF7FEFF 		bl	ButtonMatrix01_1_BM_4_Write
 100:.\Generated_Source\PSoC4/ButtonMatrix01_1_API.c ****     if(ButtonMatrix01_1_readColumn(column)) row = 3;
 513              		.loc 1 100 0
 514 008a FB1D     		add	r3, r7, #7
 515 008c 1B78     		ldrb	r3, [r3]
 516 008e 181C     		mov	r0, r3
 517 0090 FFF7FEFF 		bl	ButtonMatrix01_1_readColumn
 518 0094 031C     		mov	r3, r0
 519 0096 002B     		cmp	r3, #0
 520 0098 03D0     		beq	.L31
 521              		.loc 1 100 0 is_stmt 0 discriminator 1
 522 009a 3B1C     		mov	r3, r7
 523 009c 0F33     		add	r3, r3, #15
 524 009e 0322     		mov	r2, #3
 525 00a0 1A70     		strb	r2, [r3]
ARM GAS  C:\Users\Felix\AppData\Local\Temp\ccY0WrHG.s 			page 12


 526              	.L31:
 101:.\Generated_Source\PSoC4/ButtonMatrix01_1_API.c ****     ButtonMatrix01_1_BM_4_Write(0);
 527              		.loc 1 101 0 is_stmt 1
 528 00a2 0020     		mov	r0, #0
 529 00a4 FFF7FEFF 		bl	ButtonMatrix01_1_BM_4_Write
 102:.\Generated_Source\PSoC4/ButtonMatrix01_1_API.c ****     ButtonMatrix01_1_Enable();
 530              		.loc 1 102 0
 531 00a8 FFF7FEFF 		bl	ButtonMatrix01_1_Enable
 103:.\Generated_Source\PSoC4/ButtonMatrix01_1_API.c ****     return row;
 532              		.loc 1 103 0
 533 00ac 3B1C     		mov	r3, r7
 534 00ae 0F33     		add	r3, r3, #15
 535 00b0 1B78     		ldrb	r3, [r3]
 104:.\Generated_Source\PSoC4/ButtonMatrix01_1_API.c **** } 
 536              		.loc 1 104 0
 537 00b2 181C     		mov	r0, r3
 538 00b4 BD46     		mov	sp, r7
 539 00b6 04B0     		add	sp, sp, #16
 540              		@ sp needed for prologue
 541 00b8 80BD     		pop	{r7, pc}
 542              		.cfi_endproc
 543              	.LFE8:
 544              		.size	ButtonMatrix01_1_scanForRow, .-ButtonMatrix01_1_scanForRow
 545 00ba C046     		.section	.text.ButtonMatrix01_1_handleInterrupt,"ax",%progbits
 546              		.align	2
 547              		.global	ButtonMatrix01_1_handleInterrupt
 548              		.code	16
 549              		.thumb_func
 550              		.type	ButtonMatrix01_1_handleInterrupt, %function
 551              	ButtonMatrix01_1_handleInterrupt:
 552              	.LFB9:
 105:.\Generated_Source\PSoC4/ButtonMatrix01_1_API.c **** 
 106:.\Generated_Source\PSoC4/ButtonMatrix01_1_API.c **** void ButtonMatrix01_1_handleInterrupt(uint8_t column)
 107:.\Generated_Source\PSoC4/ButtonMatrix01_1_API.c **** {
 553              		.loc 1 107 0
 554              		.cfi_startproc
 555 0000 90B5     		push	{r4, r7, lr}
 556              	.LCFI23:
 557              		.cfi_def_cfa_offset 12
 558              		.cfi_offset 4, -12
 559              		.cfi_offset 7, -8
 560              		.cfi_offset 14, -4
 561 0002 85B0     		sub	sp, sp, #20
 562              	.LCFI24:
 563              		.cfi_def_cfa_offset 32
 564 0004 00AF     		add	r7, sp, #0
 565              	.LCFI25:
 566              		.cfi_def_cfa_register 7
 567 0006 021C     		mov	r2, r0
 568 0008 FB1D     		add	r3, r7, #7
 569 000a 1A70     		strb	r2, [r3]
 108:.\Generated_Source\PSoC4/ButtonMatrix01_1_API.c ****     ButtonMatrix01_1_Key_t key;
 109:.\Generated_Source\PSoC4/ButtonMatrix01_1_API.c ****     ButtonMatrix01_1_EventType_t et;
 110:.\Generated_Source\PSoC4/ButtonMatrix01_1_API.c ****     uint8_t row = 0;
 570              		.loc 1 110 0
 571 000c 3B1C     		mov	r3, r7
 572 000e 0E33     		add	r3, r3, #14
ARM GAS  C:\Users\Felix\AppData\Local\Temp\ccY0WrHG.s 			page 13


 573 0010 0022     		mov	r2, #0
 574 0012 1A70     		strb	r2, [r3]
 111:.\Generated_Source\PSoC4/ButtonMatrix01_1_API.c ****     
 112:.\Generated_Source\PSoC4/ButtonMatrix01_1_API.c ****     if(!ButtonMatrix01_1_readColumn(column)){
 575              		.loc 1 112 0
 576 0014 FB1D     		add	r3, r7, #7
 577 0016 1B78     		ldrb	r3, [r3]
 578 0018 181C     		mov	r0, r3
 579 001a FFF7FEFF 		bl	ButtonMatrix01_1_readColumn
 580 001e 031C     		mov	r3, r0
 581 0020 002B     		cmp	r3, #0
 582 0022 19D1     		bne	.L34
 113:.\Generated_Source\PSoC4/ButtonMatrix01_1_API.c ****         et = KEY_PRESS;
 583              		.loc 1 113 0
 584 0024 3B1C     		mov	r3, r7
 585 0026 0F33     		add	r3, r3, #15
 586 0028 0122     		mov	r2, #1
 587 002a 1A70     		strb	r2, [r3]
 114:.\Generated_Source\PSoC4/ButtonMatrix01_1_API.c ****         row = ButtonMatrix01_1_scanForRow(column);
 588              		.loc 1 114 0
 589 002c 3C1C     		mov	r4, r7
 590 002e 0E34     		add	r4, r4, #14
 591 0030 FB1D     		add	r3, r7, #7
 592 0032 1B78     		ldrb	r3, [r3]
 593 0034 181C     		mov	r0, r3
 594 0036 FFF7FEFF 		bl	ButtonMatrix01_1_scanForRow
 595 003a 031C     		mov	r3, r0
 596 003c 2370     		strb	r3, [r4]
 115:.\Generated_Source\PSoC4/ButtonMatrix01_1_API.c ****         ButtonMatrix01_1_keyStates[row][column] = 1;
 597              		.loc 1 115 0
 598 003e 3B1C     		mov	r3, r7
 599 0040 0E33     		add	r3, r3, #14
 600 0042 1A78     		ldrb	r2, [r3]
 601 0044 FB1D     		add	r3, r7, #7
 602 0046 1878     		ldrb	r0, [r3]
 603 0048 2A49     		ldr	r1, .L39
 604 004a 131C     		mov	r3, r2
 605 004c 5B00     		lsl	r3, r3, #1
 606 004e 9B18     		add	r3, r3, r2
 607 0050 1B18     		add	r3, r3, r0
 608 0052 0122     		mov	r2, #1
 609 0054 5A54     		strb	r2, [r3, r1]
 610 0056 33E0     		b	.L35
 611              	.L34:
 612              	.LBB2:
 116:.\Generated_Source\PSoC4/ButtonMatrix01_1_API.c ****     }else{
 117:.\Generated_Source\PSoC4/ButtonMatrix01_1_API.c ****         et = KEY_RELEASE;
 613              		.loc 1 117 0
 614 0058 3B1C     		mov	r3, r7
 615 005a 0F33     		add	r3, r3, #15
 616 005c 0022     		mov	r2, #0
 617 005e 1A70     		strb	r2, [r3]
 118:.\Generated_Source\PSoC4/ButtonMatrix01_1_API.c ****         uint8_t i;
 119:.\Generated_Source\PSoC4/ButtonMatrix01_1_API.c ****         for(i = 0; i < 4; i++){
 618              		.loc 1 119 0
 619 0060 3B1C     		mov	r3, r7
 620 0062 0D33     		add	r3, r3, #13
ARM GAS  C:\Users\Felix\AppData\Local\Temp\ccY0WrHG.s 			page 14


 621 0064 0022     		mov	r2, #0
 622 0066 1A70     		strb	r2, [r3]
 623 0068 25E0     		b	.L36
 624              	.L38:
 120:.\Generated_Source\PSoC4/ButtonMatrix01_1_API.c ****             if(ButtonMatrix01_1_keyStates[i][column] != 0){
 625              		.loc 1 120 0
 626 006a 3B1C     		mov	r3, r7
 627 006c 0D33     		add	r3, r3, #13
 628 006e 1A78     		ldrb	r2, [r3]
 629 0070 FB1D     		add	r3, r7, #7
 630 0072 1878     		ldrb	r0, [r3]
 631 0074 1F49     		ldr	r1, .L39
 632 0076 131C     		mov	r3, r2
 633 0078 5B00     		lsl	r3, r3, #1
 634 007a 9B18     		add	r3, r3, r2
 635 007c 1B18     		add	r3, r3, r0
 636 007e 5B5C     		ldrb	r3, [r3, r1]
 637 0080 002B     		cmp	r3, #0
 638 0082 11D0     		beq	.L37
 121:.\Generated_Source\PSoC4/ButtonMatrix01_1_API.c ****                 ButtonMatrix01_1_keyStates[i][column] = 0;
 639              		.loc 1 121 0
 640 0084 3B1C     		mov	r3, r7
 641 0086 0D33     		add	r3, r3, #13
 642 0088 1A78     		ldrb	r2, [r3]
 643 008a FB1D     		add	r3, r7, #7
 644 008c 1878     		ldrb	r0, [r3]
 645 008e 1949     		ldr	r1, .L39
 646 0090 131C     		mov	r3, r2
 647 0092 5B00     		lsl	r3, r3, #1
 648 0094 9B18     		add	r3, r3, r2
 649 0096 1B18     		add	r3, r3, r0
 650 0098 0022     		mov	r2, #0
 651 009a 5A54     		strb	r2, [r3, r1]
 122:.\Generated_Source\PSoC4/ButtonMatrix01_1_API.c ****                 row = i;
 652              		.loc 1 122 0
 653 009c 3B1C     		mov	r3, r7
 654 009e 0E33     		add	r3, r3, #14
 655 00a0 3A1C     		mov	r2, r7
 656 00a2 0D32     		add	r2, r2, #13
 657 00a4 1278     		ldrb	r2, [r2]
 658 00a6 1A70     		strb	r2, [r3]
 659              	.L37:
 119:.\Generated_Source\PSoC4/ButtonMatrix01_1_API.c ****         for(i = 0; i < 4; i++){
 660              		.loc 1 119 0
 661 00a8 3B1C     		mov	r3, r7
 662 00aa 0D33     		add	r3, r3, #13
 663 00ac 3A1C     		mov	r2, r7
 664 00ae 0D32     		add	r2, r2, #13
 665 00b0 1278     		ldrb	r2, [r2]
 666 00b2 0132     		add	r2, r2, #1
 667 00b4 1A70     		strb	r2, [r3]
 668              	.L36:
 119:.\Generated_Source\PSoC4/ButtonMatrix01_1_API.c ****         for(i = 0; i < 4; i++){
 669              		.loc 1 119 0 is_stmt 0 discriminator 1
 670 00b6 3B1C     		mov	r3, r7
 671 00b8 0D33     		add	r3, r3, #13
 672 00ba 1B78     		ldrb	r3, [r3]
ARM GAS  C:\Users\Felix\AppData\Local\Temp\ccY0WrHG.s 			page 15


 673 00bc 032B     		cmp	r3, #3
 674 00be D4D9     		bls	.L38
 675              	.L35:
 676              	.LBE2:
 123:.\Generated_Source\PSoC4/ButtonMatrix01_1_API.c ****             }
 124:.\Generated_Source\PSoC4/ButtonMatrix01_1_API.c ****         }
 125:.\Generated_Source\PSoC4/ButtonMatrix01_1_API.c ****     }
 126:.\Generated_Source\PSoC4/ButtonMatrix01_1_API.c ****     key = row * 3 + column;
 677              		.loc 1 126 0 is_stmt 1
 678 00c0 3B1C     		mov	r3, r7
 679 00c2 0E33     		add	r3, r3, #14
 680 00c4 1B78     		ldrb	r3, [r3]
 681 00c6 1A1C     		add	r2, r3, #0
 682 00c8 5200     		lsl	r2, r2, #1
 683 00ca D318     		add	r3, r2, r3
 684 00cc D9B2     		uxtb	r1, r3
 685 00ce 3B1C     		mov	r3, r7
 686 00d0 0C33     		add	r3, r3, #12
 687 00d2 FA1D     		add	r2, r7, #7
 688 00d4 1278     		ldrb	r2, [r2]
 689 00d6 8A18     		add	r2, r1, r2
 690 00d8 1A70     		strb	r2, [r3]
 127:.\Generated_Source\PSoC4/ButtonMatrix01_1_API.c ****     _KeyEvent(key, et);
 691              		.loc 1 127 0
 692 00da 3B1C     		mov	r3, r7
 693 00dc 0C33     		add	r3, r3, #12
 694 00de 1A78     		ldrb	r2, [r3]
 695 00e0 3B1C     		mov	r3, r7
 696 00e2 0F33     		add	r3, r3, #15
 697 00e4 1B78     		ldrb	r3, [r3]
 698 00e6 101C     		mov	r0, r2
 699 00e8 191C     		mov	r1, r3
 700 00ea FFF7FEFF 		bl	_KeyEvent
 128:.\Generated_Source\PSoC4/ButtonMatrix01_1_API.c **** }
 701              		.loc 1 128 0
 702 00ee BD46     		mov	sp, r7
 703 00f0 05B0     		add	sp, sp, #20
 704              		@ sp needed for prologue
 705 00f2 90BD     		pop	{r4, r7, pc}
 706              	.L40:
 707              		.align	2
 708              	.L39:
 709 00f4 00000000 		.word	ButtonMatrix01_1_keyStates
 710              		.cfi_endproc
 711              	.LFE9:
 712              		.size	ButtonMatrix01_1_handleInterrupt, .-ButtonMatrix01_1_handleInterrupt
 713              		.section	.text.ButtonMatrix01_1_ColumnAISR,"ax",%progbits
 714              		.align	2
 715              		.global	ButtonMatrix01_1_ColumnAISR
 716              		.code	16
 717              		.thumb_func
 718              		.type	ButtonMatrix01_1_ColumnAISR, %function
 719              	ButtonMatrix01_1_ColumnAISR:
 720              	.LFB10:
 129:.\Generated_Source\PSoC4/ButtonMatrix01_1_API.c **** 
 130:.\Generated_Source\PSoC4/ButtonMatrix01_1_API.c **** CY_ISR(ButtonMatrix01_1_ColumnAISR)
 131:.\Generated_Source\PSoC4/ButtonMatrix01_1_API.c **** {
ARM GAS  C:\Users\Felix\AppData\Local\Temp\ccY0WrHG.s 			page 16


 721              		.loc 1 131 0
 722              		.cfi_startproc
 723 0000 80B5     		push	{r7, lr}
 724              	.LCFI26:
 725              		.cfi_def_cfa_offset 8
 726              		.cfi_offset 7, -8
 727              		.cfi_offset 14, -4
 728 0002 00AF     		add	r7, sp, #0
 729              	.LCFI27:
 730              		.cfi_def_cfa_register 7
 132:.\Generated_Source\PSoC4/ButtonMatrix01_1_API.c ****     ButtonMatrix01_1_handleInterrupt(0);
 731              		.loc 1 132 0
 732 0004 0020     		mov	r0, #0
 733 0006 FFF7FEFF 		bl	ButtonMatrix01_1_handleInterrupt
 133:.\Generated_Source\PSoC4/ButtonMatrix01_1_API.c ****     ButtonMatrix01_1_BM_A_ClearInterrupt();
 734              		.loc 1 133 0
 735 000a FFF7FEFF 		bl	ButtonMatrix01_1_BM_A_ClearInterrupt
 134:.\Generated_Source\PSoC4/ButtonMatrix01_1_API.c **** }
 736              		.loc 1 134 0
 737 000e BD46     		mov	sp, r7
 738              		@ sp needed for prologue
 739 0010 80BD     		pop	{r7, pc}
 740              		.cfi_endproc
 741              	.LFE10:
 742              		.size	ButtonMatrix01_1_ColumnAISR, .-ButtonMatrix01_1_ColumnAISR
 743 0012 C046     		.section	.text.ButtonMatrix01_1_ColumnBISR,"ax",%progbits
 744              		.align	2
 745              		.global	ButtonMatrix01_1_ColumnBISR
 746              		.code	16
 747              		.thumb_func
 748              		.type	ButtonMatrix01_1_ColumnBISR, %function
 749              	ButtonMatrix01_1_ColumnBISR:
 750              	.LFB11:
 135:.\Generated_Source\PSoC4/ButtonMatrix01_1_API.c **** 
 136:.\Generated_Source\PSoC4/ButtonMatrix01_1_API.c **** CY_ISR(ButtonMatrix01_1_ColumnBISR)
 137:.\Generated_Source\PSoC4/ButtonMatrix01_1_API.c **** {
 751              		.loc 1 137 0
 752              		.cfi_startproc
 753 0000 80B5     		push	{r7, lr}
 754              	.LCFI28:
 755              		.cfi_def_cfa_offset 8
 756              		.cfi_offset 7, -8
 757              		.cfi_offset 14, -4
 758 0002 00AF     		add	r7, sp, #0
 759              	.LCFI29:
 760              		.cfi_def_cfa_register 7
 138:.\Generated_Source\PSoC4/ButtonMatrix01_1_API.c ****     ButtonMatrix01_1_handleInterrupt(1);
 761              		.loc 1 138 0
 762 0004 0120     		mov	r0, #1
 763 0006 FFF7FEFF 		bl	ButtonMatrix01_1_handleInterrupt
 139:.\Generated_Source\PSoC4/ButtonMatrix01_1_API.c ****     ButtonMatrix01_1_BM_B_ClearInterrupt();
 764              		.loc 1 139 0
 765 000a FFF7FEFF 		bl	ButtonMatrix01_1_BM_B_ClearInterrupt
 140:.\Generated_Source\PSoC4/ButtonMatrix01_1_API.c **** }
 766              		.loc 1 140 0
 767 000e BD46     		mov	sp, r7
 768              		@ sp needed for prologue
ARM GAS  C:\Users\Felix\AppData\Local\Temp\ccY0WrHG.s 			page 17


 769 0010 80BD     		pop	{r7, pc}
 770              		.cfi_endproc
 771              	.LFE11:
 772              		.size	ButtonMatrix01_1_ColumnBISR, .-ButtonMatrix01_1_ColumnBISR
 773 0012 C046     		.section	.text.ButtonMatrix01_1_ColumnCISR,"ax",%progbits
 774              		.align	2
 775              		.global	ButtonMatrix01_1_ColumnCISR
 776              		.code	16
 777              		.thumb_func
 778              		.type	ButtonMatrix01_1_ColumnCISR, %function
 779              	ButtonMatrix01_1_ColumnCISR:
 780              	.LFB12:
 141:.\Generated_Source\PSoC4/ButtonMatrix01_1_API.c **** 
 142:.\Generated_Source\PSoC4/ButtonMatrix01_1_API.c **** CY_ISR(ButtonMatrix01_1_ColumnCISR)
 143:.\Generated_Source\PSoC4/ButtonMatrix01_1_API.c **** {
 781              		.loc 1 143 0
 782              		.cfi_startproc
 783 0000 80B5     		push	{r7, lr}
 784              	.LCFI30:
 785              		.cfi_def_cfa_offset 8
 786              		.cfi_offset 7, -8
 787              		.cfi_offset 14, -4
 788 0002 00AF     		add	r7, sp, #0
 789              	.LCFI31:
 790              		.cfi_def_cfa_register 7
 144:.\Generated_Source\PSoC4/ButtonMatrix01_1_API.c ****     ButtonMatrix01_1_handleInterrupt(2);
 791              		.loc 1 144 0
 792 0004 0220     		mov	r0, #2
 793 0006 FFF7FEFF 		bl	ButtonMatrix01_1_handleInterrupt
 145:.\Generated_Source\PSoC4/ButtonMatrix01_1_API.c ****     ButtonMatrix01_1_BM_C_ClearInterrupt();
 794              		.loc 1 145 0
 795 000a FFF7FEFF 		bl	ButtonMatrix01_1_BM_C_ClearInterrupt
 146:.\Generated_Source\PSoC4/ButtonMatrix01_1_API.c **** }
 796              		.loc 1 146 0
 797 000e BD46     		mov	sp, r7
 798              		@ sp needed for prologue
 799 0010 80BD     		pop	{r7, pc}
 800              		.cfi_endproc
 801              	.LFE12:
 802              		.size	ButtonMatrix01_1_ColumnCISR, .-ButtonMatrix01_1_ColumnCISR
 803 0012 C046     		.text
 804              	.Letext0:
 805              		.file 2 "c:\\program files (x86)\\cypress\\psoc creator\\3.0\\psoc creator\\import\\gnu_cs\\arm\\4
 806              		.file 3 ".\\Generated_Source\\PSoC4\\ButtonMatrix01_1_API.h"